ccopy_reg
_reconstructor
p0
(cnltk.classify.naivebayes
NaiveBayesClassifier
p1
c__builtin__
object
p2
Ntp3
Rp4
(dp5
S'_labels'
p6
(lp7
S'negative'
p8
aS'positive'
p9
asS'_feature_probdist'
p10
(dp11
(g8
S'contains(allegation)'
p12
tp13
g0
(cnltk.probability
ELEProbDist
p14
g2
Ntp15
Rp16
(dp17
S'_gamma'
p18
F0.5
sS'_N'
p19
I1062
sS'_freqdist'
p20
g0
(cnltk.probability
FreqDist
p21
c__builtin__
dict
p22
(dp23
I00
I1048
sI01
I14
stp24
Rp25
(dp26
g19
I1062
sS'_max_cache'
p27
NsS'_item_cache'
p28
(lp29
(I00
I1048
tp30
a(I01
I14
tp31
asS'_Nr_cache'
p32
NsbsS'_bins'
p33
I3
sS'_divisor'
p34
F1063.5
sbs(g9
S'contains(dimon)'
p35
tp36
g0
(g14
g2
Ntp37
Rp38
(dp39
g18
F0.5
sg19
I1062
sg20
g0
(g21
g22
(dp40
I00
I1047
sI01
I15
stp41
Rp42
(dp43
g19
I1062
sg27
Nsg28
(lp44
(I00
I1047
tp45
a(I01
I15
tp46
asg32
Nsbsg33
I3
sg34
F1063.5
sbs(g8
S'contains(return)'
p47
tp48
g0
(g14
g2
Ntp49
Rp50
(dp51
g18
F0.5
sg19
I1062
sg20
g0
(g21
g22
(dp52
I00
I1043
sI01
I19
stp53
Rp54
(dp55
g19
I1062
sg27
Nsg28
(lp56
(I00
I1043
tp57
a(I01
I19
tp58
asg32
Nsbsg33
I3
sg34
F1063.5
sbs(g9
S'contains(name)'
p59
tp60
g0
(g14
g2
Ntp61
Rp62
(dp63
g18
F0.5
sg19
I1062
sg20
g0
(g21
g22
(dp64
I00
I1048
sI01
I14
stp65
Rp66
(dp67
g19
I1062
sg27
Nsg28
(lp68
(I00
I1048
tp69
a(I01
I14
tp70
asg32
Nsbsg33
I3
sg34
F1063.5
sbs(g9
S'contains(campaign)'
p71
tp72
g0
(g14
g2
Ntp73
Rp74
(dp75
g18
F0.5
sg19
I1062
sg20
g0
(g21
g22
(dp76
I00
I1050
sI01
I12
stp77
Rp78
(dp79
g19
I1062
sg27
Nsg28
(lp80
(I00
I1050
tp81
a(I01
I12
tp82
asg32
Nsbsg33
I3
sg34
F1063.5
sbs(g8
S'contains(reduce)'
p83
tp84
g0
(g14
g2
Ntp85
Rp86
(dp87
g18
F0.5
sg19
I1062
sg20
g0
(g21
g22
(dp88
I00
I1048
sI01
I14
stp89
Rp90
(dp91
g19
I1062
sg27
Nsg28
(lp92
(I00
I1048
tp93
a(I01
I14
tp94
asg32
Nsbsg33
I3
sg34
F1063.5
sbs(g8
S'contains(draw)'
p95
tp96
g0
(g14
g2
Ntp97
Rp98
(dp99
g18
F0.5
sg19
I1062
sg20
g0
(g21
g22
(dp100
I00
I1052
sI01
I10
stp101
Rp102
(dp103
g19
I1062
sg27
Nsg28
(lp104
(I00
I1052
tp105
a(I01
I10
tp106
asg32
Nsbsg33
I3
sg34
F1063.5
sbs(g9
S'contains(law)'
p107
tp108
g0
(g14
g2
Ntp109
Rp110
(dp111
g18
F0.5
sg19
I1062
sg20
g0
(g21
g22
(dp112
I00
I1050
sI01
I12
stp113
Rp114
(dp115
g19
I1062
sg27
Nsg28
(lp116
(I00
I1050
tp117
a(I01
I12
tp118
asg32
Nsbsg33
I3
sg34
F1063.5
sbs(g9
S'contains(run)'
p119
tp120
g0
(g14
g2
Ntp121
Rp122
(dp123
g18
F0.5
sg19
I1062
sg20
g0
(g21
g22
(dp124
I00
I1030
sI01
I32
stp125
Rp126
(dp127
g19
I1062
sg27
Nsg28
(lp128
(I00
I1030
tp129
a(I01
I32
tp130
asg32
Nsbsg33
I3
sg34
F1063.5
sbs(g9
S'contains(banker)'
p131
tp132
g0
(g14
g2
Ntp133
Rp134
(dp135
g18
F0.5
sg19
I1062
sg20
g0
(g21
g22
(dp136
I00
I1048
sI01
I14
stp137
Rp138
(dp139
g19
I1062
sg27
Nsg28
(lp140
(I00
I1048
tp141
a(I01
I14
tp142
asg32
Nsbsg33
I3
sg34
F1063.5
sbs(g9
S'contains(reach)'
p143
tp144
g0
(g14
g2
Ntp145
Rp146
(dp147
g18
F0.5
sg19
I1062
sg20
g0
(g21
g22
(dp148
I00
I1035
sI01
I27
stp149
Rp150
(dp151
g19
I1062
sg27
Nsg28
(lp152
(I00
I1035
tp153
a(I01
I27
tp154
asg32
Nsbsg33
I3
sg34
F1063.5
sbs(g8
S'contains(equity)'
p155
tp156
g0
(g14
g2
Ntp157
Rp158
(dp159
g18
F0.5
sg19
I1062
sg20
g0
(g21
g22
(dp160
I00
I1034
sI01
I28
stp161
Rp162
(dp163
g19
I1062
sg27
Nsg28
(lp164
(I00
I1034
tp165
a(I01
I28
tp166
asg32
Nsbsg33
I3
sg34
F1063.5
sbs(g8
S'contains(technology)'
p167
tp168
g0
(g14
g2
Ntp169
Rp170
(dp171
g18
F0.5
sg19
I1062
sg20
g0
(g21
g22
(dp172
I00
I1022
sI01
I40
stp173
Rp174
(dp175
g19
I1062
sg27
Nsg28
(lp176
(I00
I1022
tp177
a(I01
I40
tp178
asg32
Nsbsg33
I3
sg34
F1063.5
sbs(g8
S'contains(place)'
p179
tp180
g0
(g14
g2
Ntp181
Rp182
(dp183
g18
F0.5
sg19
I1062
sg20
g0
(g21
g22
(dp184
I00
I1049
sI01
I13
stp185
Rp186
(dp187
g19
I1062
sg27
Nsg28
(lp188
(I00
I1049
tp189
a(I01
I13
tp190
asg32
Nsbsg33
I3
sg34
F1063.5
sbs(g9
S'contains(position)'
p191
tp192
g0
(g14
g2
Ntp193
Rp194
(dp195
g18
F0.5
sg19
I1062
sg20
g0
(g21
g22
(dp196
I00
I1043
sI01
I19
stp197
Rp198
(dp199
g19
I1062
sg27
Nsg28
(lp200
(I00
I1043
tp201
a(I01
I19
tp202
asg32
Nsbsg33
I3
sg34
F1063.5
sbs(g8
S'contains(begin)'
p203
tp204
g0
(g14
g2
Ntp205
Rp206
(dp207
g18
F0.5
sg19
I1062
sg20
g0
(g21
g22
(dp208
I00
I1047
sI01
I15
stp209
Rp210
(dp211
g19
I1062
sg27
Nsg28
(lp212
(I00
I1047
tp213
a(I01
I15
tp214
asg32
Nsbsg33
I3
sg34
F1063.5
sbs(g9
S'contains(partner)'
p215
tp216
g0
(g14
g2
Ntp217
Rp218
(dp219
g18
F0.5
sg19
I1062
sg20
g0
(g21
g22
(dp220
I00
I1048
sI01
I14
stp221
Rp222
(dp223
g19
I1062
sg27
Nsg28
(lp224
(I00
I1048
tp225
a(I01
I14
tp226
asg32
Nsbsg33
I3
sg34
F1063.5
sbs(g9
S'contains(margin)'
p227
tp228
g0
(g14
g2
Ntp229
Rp230
(dp231
g18
F0.5
sg19
I1062
sg20
g0
(g21
g22
(dp232
I00
I1046
sI01
I16
stp233
Rp234
(dp235
g19
I1062
sg27
Nsg28
(lp236
(I00
I1046
tp237
a(I01
I16
tp238
asg32
Nsbsg33
I3
sg34
F1063.5
sbs(g9
S'contains(shift)'
p239
tp240
g0
(g14
g2
Ntp241
Rp242
(dp243
g18
F0.5
sg19
I1062
sg20
g0
(g21
g22
(dp244
I00
I1048
sI01
I14
stp245
Rp246
(dp247
g19
I1062
sg27
Nsg28
(lp248
(I00
I1048
tp249
a(I01
I14
tp250
asg32
Nsbsg33
I3
sg34
F1063.5
sbs(g8
S'contains(june)'
p251
tp252
g0
(g14
g2
Ntp253
Rp254
(dp255
g18
F0.5
sg19
I1062
sg20
g0
(g21
g22
(dp256
I00
I1045
sI01
I17
stp257
Rp258
(dp259
g19
I1062
sg27
Nsg28
(lp260
(I00
I1045
tp261
a(I01
I17
tp262
asg32
Nsbsg33
I3
sg34
F1063.5
sbs(g9
S'contains(turn)'
p263
tp264
g0
(g14
g2
Ntp265
Rp266
(dp267
g18
F0.5
sg19
I1062
sg20
g0
(g21
g22
(dp268
I00
I1048
sI01
I14
stp269
Rp270
(dp271
g19
I1062
sg27
Nsg28
(lp272
(I00
I1048
tp273
a(I01
I14
tp274
asg32
Nsbsg33
I3
sg34
F1063.5
sbs(g8
S'contains(security)'
p275
tp276
g0
(g14
g2
Ntp277
Rp278
(dp279
g18
F0.5
sg19
I1062
sg20
g0
(g21
g22
(dp280
I00
I1025
sI01
I37
stp281
Rp282
(dp283
g19
I1062
sg27
Nsg28
(lp284
(I00
I1025
tp285
a(I01
I37
tp286
asg32
Nsbsg33
I3
sg34
F1063.5
sbs(g9
S'contains(include)'
p287
tp288
g0
(g14
g2
Ntp289
Rp290
(dp291
g18
F0.5
sg19
I1062
sg20
g0
(g21
g22
(dp292
I00
I1010
sI01
I52
stp293
Rp294
(dp295
g19
I1062
sg27
Nsg28
(lp296
(I00
I1010
tp297
a(I01
I52
tp298
asg32
Nsbsg33
I3
sg34
F1063.5
sbs(g9
S'contains(news)'
p299
tp300
g0
(g14
g2
Ntp301
Rp302
(dp303
g18
F0.5
sg19
I1062
sg20
g0
(g21
g22
(dp304
I00
I1040
sI01
I22
stp305
Rp306
(dp307
g19
I1062
sg27
Nsg28
(lp308
(I00
I1040
tp309
a(I01
I22
tp310
asg32
Nsbsg33
I3
sg34
F1063.5
sbs(g9
S'contains(interest)'
p311
tp312
g0
(g14
g2
Ntp313
Rp314
(dp315
g18
F0.5
sg19
I1062
sg20
g0
(g21
g22
(dp316
I00
I1041
sI01
I21
stp317
Rp318
(dp319
g19
I1062
sg27
Nsg28
(lp320
(I00
I1041
tp321
a(I01
I21
tp322
asg32
Nsbsg33
I3
sg34
F1063.5
sbs(g8
S'contains(power)'
p323
tp324
g0
(g14
g2
Ntp325
Rp326
(dp327
g18
F0.5
sg19
I1062
sg20
g0
(g21
g22
(dp328
I00
I1042
sI01
I20
stp329
Rp330
(dp331
g19
I1062
sg27
Nsg28
(lp332
(I00
I1042
tp333
a(I01
I20
tp334
asg32
Nsbsg33
I3
sg34
F1063.5
sbs(g8
S'contains(bond)'
p335
tp336
g0
(g14
g2
Ntp337
Rp338
(dp339
g18
F0.5
sg19
I1062
sg20
g0
(g21
g22
(dp340
I00
I1047
sI01
I15
stp341
Rp342
(dp343
g19
I1062
sg27
Nsg28
(lp344
(I00
I1047
tp345
a(I01
I15
tp346
asg32
Nsbsg33
I3
sg34
F1063.5
sbs(g9
S'contains(government)'
p347
tp348
g0
(g14
g2
Ntp349
Rp350
(dp351
g18
F0.5
sg19
I1062
sg20
g0
(g21
g22
(dp352
I00
I1028
sI01
I34
stp353
Rp354
(dp355
g19
I1062
sg27
Nsg28
(lp356
(I00
I1028
tp357
a(I01
I34
tp358
asg32
Nsbsg33
I3
sg34
F1063.5
sbs(g8
S'contains(map)'
p359
tp360
g0
(g14
g2
Ntp361
Rp362
(dp363
g18
F0.5
sg19
I1062
sg20
g0
(g21
g22
(dp364
I00
I1049
sI01
I13
stp365
Rp366
(dp367
g19
I1062
sg27
Nsg28
(lp368
(I00
I1049
tp369
a(I01
I13
tp370
asg32
Nsbsg33
I3
sg34
F1063.5
sbs(g8
S'contains(rise)'
p371
tp372
g0
(g14
g2
Ntp373
Rp374
(dp375
g18
F0.5
sg19
I1062
sg20
g0
(g21
g22
(dp376
I00
I1039
sI01
I23
stp377
Rp378
(dp379
g19
I1062
sg27
Nsg28
(lp380
(I00
I1039
tp381
a(I01
I23
tp382
asg32
Nsbsg33
I3
sg34
F1063.5
sbs(g9
S'contains(smartphone)'
p383
tp384
g0
(g14
g2
Ntp385
Rp386
(dp387
g18
F0.5
sg19
I1062
sg20
g0
(g21
g22
(dp388
I00
I1045
sI01
I17
stp389
Rp390
(dp391
g19
I1062
sg27
Nsg28
(lp392
(I00
I1045
tp393
a(I01
I17
tp394
asg32
Nsbsg33
I3
sg34
F1063.5
sbs(g9
S'contains(analyst)'
p395
tp396
g0
(g14
g2
Ntp397
Rp398
(dp399
g18
F0.5
sg19
I1062
sg20
g0
(g21
g22
(dp400
I00
I1003
sI01
I59
stp401
Rp402
(dp403
g19
I1062
sg27
Nsg28
(lp404
(I00
I1003
tp405
a(I01
I59
tp406
asg32
Nsbsg33
I3
sg34
F1063.5
sbs(g9
S'contains(office)'
p407
tp408
g0
(g14
g2
Ntp409
Rp410
(dp411
g18
F0.5
sg19
I1062
sg20
g0
(g21
g22
(dp412
I00
I1043
sI01
I19
stp413
Rp414
(dp415
g19
I1062
sg27
Nsg28
(lp416
(I00
I1043
tp417
a(I01
I19
tp418
asg32
Nsbsg33
I3
sg34
F1063.5
sbs(g9
S'contains(september)'
p419
tp420
g0
(g14
g2
Ntp421
Rp422
(dp423
g18
F0.5
sg19
I1062
sg20
g0
(g21
g22
(dp424
I00
I1047
sI01
I15
stp425
Rp426
(dp427
g19
I1062
sg27
Nsg28
(lp428
(I00
I1047
tp429
a(I01
I15
tp430
asg32
Nsbsg33
I3
sg34
F1063.5
sbs(g9
S'contains(management)'
p431
tp432
g0
(g14
g2
Ntp433
Rp434
(dp435
g18
F0.5
sg19
I1062
sg20
g0
(g21
g22
(dp436
I00
I1042
sI01
I20
stp437
Rp438
(dp439
g19
I1062
sg27
Nsg28
(lp440
(I00
I1042
tp441
a(I01
I20
tp442
asg32
Nsbsg33
I3
sg34
F1063.5
sbs(g8
S'contains(put)'
p443
tp444
g0
(g14
g2
Ntp445
Rp446
(dp447
g18
F0.5
sg19
I1062
sg20
g0
(g21
g22
(dp448
I00
I1034
sI01
I28
stp449
Rp450
(dp451
g19
I1062
sg27
Nsg28
(lp452
(I00
I1034
tp453
a(I01
I28
tp454
asg32
Nsbsg33
I3
sg34
F1063.5
sbs(g8
S'contains(software)'
p455
tp456
g0
(g14
g2
Ntp457
Rp458
(dp459
g18
F0.5
sg19
I1062
sg20
g0
(g21
g22
(dp460
I00
I1031
sI01
I31
stp461
Rp462
(dp463
g19
I1062
sg27
Nsg28
(lp464
(I00
I1031
tp465
a(I01
I31
tp466
asg32
Nsbsg33
I3
sg34
F1063.5
sbs(g8
S'contains(shareholder)'
p467
tp468
g0
(g14
g2
Ntp469
Rp470
(dp471
g18
F0.5
sg19
I1062
sg20
g0
(g21
g22
(dp472
I00
I1038
sI01
I24
stp473
Rp474
(dp475
g19
I1062
sg27
Nsg28
(lp476
(I00
I1038
tp477
a(I01
I24
tp478
asg32
Nsbsg33
I3
sg34
F1063.5
sbs(g9
S'contains(add)'
p479
tp480
g0
(g14
g2
Ntp481
Rp482
(dp483
g18
F0.5
sg19
I1062
sg20
g0
(g21
g22
(dp484
I00
I1032
sI01
I30
stp485
Rp486
(dp487
g19
I1062
sg27
Nsg28
(lp488
(I00
I1032
tp489
a(I01
I30
tp490
asg32
Nsbsg33
I3
sg34
F1063.5
sbs(g9
S'contains(allegation)'
p491
tp492
g0
(g14
g2
Ntp493
Rp494
(dp495
g18
F0.5
sg19
I1062
sg20
g0
(g21
g22
(dp496
I00
I1052
sI01
I10
stp497
Rp498
(dp499
g19
I1062
sg27
Nsg28
(lp500
(I00
I1052
tp501
a(I01
I10
tp502
asg32
Nsbsg33
I3
sg34
F1063.5
sbs(g9
S'contains(post)'
p503
tp504
g0
(g14
g2
Ntp505
Rp506
(dp507
g18
F0.5
sg19
I1062
sg20
g0
(g21
g22
(dp508
I00
I1046
sI01
I16
stp509
Rp510
(dp511
g19
I1062
sg27
Nsg28
(lp512
(I00
I1046
tp513
a(I01
I16
tp514
asg32
Nsbsg33
I3
sg34
F1063.5
sbs(g8
S'contains(money)'
p515
tp516
g0
(g14
g2
Ntp517
Rp518
(dp519
g18
F0.5
sg19
I1062
sg20
g0
(g21
g22
(dp520
I00
I1044
sI01
I18
stp521
Rp522
(dp523
g19
I1062
sg27
Nsg28
(lp524
(I00
I1044
tp525
a(I01
I18
tp526
asg32
Nsbsg33
I3
sg34
F1063.5
sbs(g9
S'contains(china)'
p527
tp528
g0
(g14
g2
Ntp529
Rp530
(dp531
g18
F0.5
sg19
I1062
sg20
g0
(g21
g22
(dp532
I00
I1039
sI01
I23
stp533
Rp534
(dp535
g19
I1062
sg27
Nsg28
(lp536
(I00
I1039
tp537
a(I01
I23
tp538
asg32
Nsbsg33
I3
sg34
F1063.5
sbs(g9
S'contains(data)'
p539
tp540
g0
(g14
g2
Ntp541
Rp542
(dp543
g18
F0.5
sg19
I1062
sg20
g0
(g21
g22
(dp544
I00
I1025
sI01
I37
stp545
Rp546
(dp547
g19
I1062
sg27
Nsg28
(lp548
(I00
I1025
tp549
a(I01
I37
tp550
asg32
Nsbsg33
I3
sg34
F1063.5
sbs(g9
S'contains(friday)'
p551
tp552
g0
(g14
g2
Ntp553
Rp554
(dp555
g18
F0.5
sg19
I1062
sg20
g0
(g21
g22
(dp556
I00
I1047
sI01
I15
stp557
Rp558
(dp559
g19
I1062
sg27
Nsg28
(lp560
(I00
I1047
tp561
a(I01
I15
tp562
asg32
Nsbsg33
I3
sg34
F1063.5
sbs(g9
S'contains(agency)'
p563
tp564
g0
(g14
g2
Ntp565
Rp566
(dp567
g18
F0.5
sg19
I1062
sg20
g0
(g21
g22
(dp568
I00
I1055
sI01
I7
stp569
Rp570
(dp571
g19
I1062
sg27
Nsg28
(lp572
(I00
I1055
tp573
a(I01
I7
tp574
asg32
Nsbsg33
I3
sg34
F1063.5
sbs(g8
S'contains(derivative)'
p575
tp576
g0
(g14
g2
Ntp577
Rp578
(dp579
g18
F0.5
sg19
I1062
sg20
g0
(g21
g22
(dp580
I00
I1044
sI01
I18
stp581
Rp582
(dp583
g19
I1062
sg27
Nsg28
(lp584
(I00
I1044
tp585
a(I01
I18
tp586
asg32
Nsbsg33
I3
sg34
F1063.5
sbs(g9
S'contains(technology)'
p587
tp588
g0
(g14
g2
Ntp589
Rp590
(dp591
g18
F0.5
sg19
I1062
sg20
g0
(g21
g22
(dp592
I00
I1024
sI01
I38
stp593
Rp594
(dp595
g19
I1062
sg27
Nsg28
(lp596
(I00
I1024
tp597
a(I01
I38
tp598
asg32
Nsbsg33
I3
sg34
F1063.5
sbs(g8
S'contains(rival)'
p599
tp600
g0
(g14
g2
Ntp601
Rp602
(dp603
g18
F0.5
sg19
I1062
sg20
g0
(g21
g22
(dp604
I00
I1029
sI01
I33
stp605
Rp606
(dp607
g19
I1062
sg27
Nsg28
(lp608
(I00
I1029
tp609
a(I01
I33
tp610
asg32
Nsbsg33
I3
sg34
F1063.5
sbs(g8
S'contains(debt)'
p611
tp612
g0
(g14
g2
Ntp613
Rp614
(dp615
g18
F0.5
sg19
I1062
sg20
g0
(g21
g22
(dp616
I00
I1053
sI01
I9
stp617
Rp618
(dp619
g19
I1062
sg27
Nsg28
(lp620
(I00
I1053
tp621
a(I01
I9
tp622
asg32
Nsbsg33
I3
sg34
F1063.5
sbs(g9
S'contains(fail)'
p623
tp624
g0
(g14
g2
Ntp625
Rp626
(dp627
g18
F0.5
sg19
I1062
sg20
g0
(g21
g22
(dp628
I00
I1042
sI01
I20
stp629
Rp630
(dp631
g19
I1062
sg27
Nsg28
(lp632
(I00
I1042
tp633
a(I01
I20
tp634
asg32
Nsbsg33
I3
sg34
F1063.5
sbs(g9
S'contains(maker)'
p635
tp636
g0
(g14
g2
Ntp637
Rp638
(dp639
g18
F0.5
sg19
I1062
sg20
g0
(g21
g22
(dp640
I00
I1042
sI01
I20
stp641
Rp642
(dp643
g19
I1062
sg27
Nsg28
(lp644
(I00
I1042
tp645
a(I01
I20
tp646
asg32
Nsbsg33
I3
sg34
F1063.5
sbs(g8
S'contains(claim)'
p647
tp648
g0
(g14
g2
Ntp649
Rp650
(dp651
g18
F0.5
sg19
I1062
sg20
g0
(g21
g22
(dp652
I00
I1028
sI01
I34
stp653
Rp654
(dp655
g19
I1062
sg27
Nsg28
(lp656
(I00
I1028
tp657
a(I01
I34
tp658
asg32
Nsbsg33
I3
sg34
F1063.5
sbs(g9
S'contains(forecast)'
p659
tp660
g0
(g14
g2
Ntp661
Rp662
(dp663
g18
F0.5
sg19
I1062
sg20
g0
(g21
g22
(dp664
I00
I1044
sI01
I18
stp665
Rp666
(dp667
g19
I1062
sg27
Nsg28
(lp668
(I00
I1044
tp669
a(I01
I18
tp670
asg32
Nsbsg33
I3
sg34
F1063.5
sbs(g8
S'contains(competition)'
p671
tp672
g0
(g14
g2
Ntp673
Rp674
(dp675
g18
F0.5
sg19
I1062
sg20
g0
(g21
g22
(dp676
I00
I1040
sI01
I22
stp677
Rp678
(dp679
g19
I1062
sg27
Nsg28
(lp680
(I00
I1040
tp681
a(I01
I22
tp682
asg32
Nsbsg33
I3
sg34
F1063.5
sbs(g8
S'contains(lose)'
p683
tp684
g0
(g14
g2
Ntp685
Rp686
(dp687
g18
F0.5
sg19
I1062
sg20
g0
(g21
g22
(dp688
I00
I1017
sI01
I45
stp689
Rp690
(dp691
g19
I1062
sg27
Nsg28
(lp692
(I00
I1017
tp693
a(I01
I45
tp694
asg32
Nsbsg33
I3
sg34
F1063.5
sbs(g9
S'contains(limit)'
p695
tp696
g0
(g14
g2
Ntp697
Rp698
(dp699
g18
F0.5
sg19
I1062
sg20
g0
(g21
g22
(dp700
I00
I1049
sI01
I13
stp701
Rp702
(dp703
g19
I1062
sg27
Nsg28
(lp704
(I00
I1049
tp705
a(I01
I13
tp706
asg32
Nsbsg33
I3
sg34
F1063.5
sbs(g8
S'contains(medium)'
p707
tp708
g0
(g14
g2
Ntp709
Rp710
(dp711
g18
F0.5
sg19
I1062
sg20
g0
(g21
g22
(dp712
I00
I1039
sI01
I23
stp713
Rp714
(dp715
g19
I1062
sg27
Nsg28
(lp716
(I00
I1039
tp717
a(I01
I23
tp718
asg32
Nsbsg33
I3
sg34
F1063.5
sbs(g8
S'contains(interest)'
p719
tp720
g0
(g14
g2
Ntp721
Rp722
(dp723
g18
F0.5
sg19
I1062
sg20
g0
(g21
g22
(dp724
I00
I1036
sI01
I26
stp725
Rp726
(dp727
g19
I1062
sg27
Nsg28
(lp728
(I00
I1036
tp729
a(I01
I26
tp730
asg32
Nsbsg33
I3
sg34
F1063.5
sbs(g9
S'contains(decline)'
p731
tp732
g0
(g14
g2
Ntp733
Rp734
(dp735
g18
F0.5
sg19
I1062
sg20
g0
(g21
g22
(dp736
I00
I1046
sI01
I16
stp737
Rp738
(dp739
g19
I1062
sg27
Nsg28
(lp740
(I00
I1046
tp741
a(I01
I16
tp742
asg32
Nsbsg33
I3
sg34
F1063.5
sbs(g9
S'contains(hedge)'
p743
tp744
g0
(g14
g2
Ntp745
Rp746
(dp747
g18
F0.5
sg19
I1062
sg20
g0
(g21
g22
(dp748
I00
I1053
sI01
I9
stp749
Rp750
(dp751
g19
I1062
sg27
Nsg28
(lp752
(I00
I1053
tp753
a(I01
I9
tp754
asg32
Nsbsg33
I3
sg34
F1063.5
sbs(g8
S'contains(programme)'
p755
tp756
g0
(g14
g2
Ntp757
Rp758
(dp759
g18
F0.5
sg19
I1062
sg20
g0
(g21
g22
(dp760
I00
I1051
sI01
I11
stp761
Rp762
(dp763
g19
I1062
sg27
Nsg28
(lp764
(I00
I1051
tp765
a(I01
I11
tp766
asg32
Nsbsg33
I3
sg34
F1063.5
sbs(g8
S'contains(period)'
p767
tp768
g0
(g14
g2
Ntp769
Rp770
(dp771
g18
F0.5
sg19
I1062
sg20
g0
(g21
g22
(dp772
I00
I1051
sI01
I11
stp773
Rp774
(dp775
g19
I1062
sg27
Nsg28
(lp776
(I00
I1051
tp777
a(I01
I11
tp778
asg32
Nsbsg33
I3
sg34
F1063.5
sbs(g8
S'contains(include)'
p779
tp780
g0
(g14
g2
Ntp781
Rp782
(dp783
g18
F0.5
sg19
I1062
sg20
g0
(g21
g22
(dp784
I00
I1019
sI01
I43
stp785
Rp786
(dp787
g19
I1062
sg27
Nsg28
(lp788
(I00
I1019
tp789
a(I01
I43
tp790
asg32
Nsbsg33
I3
sg34
F1063.5
sbs(g9
S'contains(per)'
p791
tp792
g0
(g14
g2
Ntp793
Rp794
(dp795
g18
F0.5
sg19
I1062
sg20
g0
(g21
g22
(dp796
I00
I1031
sI01
I31
stp797
Rp798
(dp799
g19
I1062
sg27
Nsg28
(lp800
(I00
I1031
tp801
a(I01
I31
tp802
asg32
Nsbsg33
I3
sg34
F1063.5
sbs(g8
S'contains(offer)'
p803
tp804
g0
(g14
g2
Ntp805
Rp806
(dp807
g18
F0.5
sg19
I1062
sg20
g0
(g21
g22
(dp808
I00
I1050
sI01
I12
stp809
Rp810
(dp811
g19
I1062
sg27
Nsg28
(lp812
(I00
I1050
tp813
a(I01
I12
tp814
asg32
Nsbsg33
I3
sg34
F1063.5
sbs(g9
S'contains(patent)'
p815
tp816
g0
(g14
g2
Ntp817
Rp818
(dp819
g18
F0.5
sg19
I1062
sg20
g0
(g21
g22
(dp820
I00
I1043
sI01
I19
stp821
Rp822
(dp823
g19
I1062
sg27
Nsg28
(lp824
(I00
I1043
tp825
a(I01
I19
tp826
asg32
Nsbsg33
I3
sg34
F1063.5
sbs(g9
S'contains(claim)'
p827
tp828
g0
(g14
g2
Ntp829
Rp830
(dp831
g18
F0.5
sg19
I1062
sg20
g0
(g21
g22
(dp832
I00
I1032
sI01
I30
stp833
Rp834
(dp835
g19
I1062
sg27
Nsg28
(lp836
(I00
I1032
tp837
a(I01
I30
tp838
asg32
Nsbsg33
I3
sg34
F1063.5
sbs(g8
S'contains(agree)'
p839
tp840
g0
(g14
g2
Ntp841
Rp842
(dp843
g18
F0.5
sg19
I1062
sg20
g0
(g21
g22
(dp844
I00
I1048
sI01
I14
stp845
Rp846
(dp847
g19
I1062
sg27
Nsg28
(lp848
(I00
I1048
tp849
a(I01
I14
tp850
asg32
Nsbsg33
I3
sg34
F1063.5
sbs(g9
S'contains(cut)'
p851
tp852
g0
(g14
g2
Ntp853
Rp854
(dp855
g18
F0.5
sg19
I1062
sg20
g0
(g21
g22
(dp856
I00
I1045
sI01
I17
stp857
Rp858
(dp859
g19
I1062
sg27
Nsg28
(lp860
(I00
I1045
tp861
a(I01
I17
tp862
asg32
Nsbsg33
I3
sg34
F1063.5
sbs(g8
S'contains(chief)'
p863
tp864
g0
(g14
g2
Ntp865
Rp866
(dp867
g18
F0.5
sg19
I1062
sg20
g0
(g21
g22
(dp868
I00
I995
sI01
I67
stp869
Rp870
(dp871
g19
I1062
sg27
Nsg28
(lp872
(I00
I995
tp873
a(I01
I67
tp874
asg32
Nsbsg33
I3
sg34
F1063.5
sbs(g9
S'contains(rule)'
p875
tp876
g0
(g14
g2
Ntp877
Rp878
(dp879
g18
F0.5
sg19
I1062
sg20
g0
(g21
g22
(dp880
I00
I1044
sI01
I18
stp881
Rp882
(dp883
g19
I1062
sg27
Nsg28
(lp884
(I00
I1044
tp885
a(I01
I18
tp886
asg32
Nsbsg33
I3
sg34
F1063.5
sbs(g9
S'contains(bring)'
p887
tp888
g0
(g14
g2
Ntp889
Rp890
(dp891
g18
F0.5
sg19
I1062
sg20
g0
(g21
g22
(dp892
I00
I1046
sI01
I16
stp893
Rp894
(dp895
g19
I1062
sg27
Nsg28
(lp896
(I00
I1046
tp897
a(I01
I16
tp898
asg32
Nsbsg33
I3
sg34
F1063.5
sbs(g8
S'contains(revenue)'
p899
tp900
g0
(g14
g2
Ntp901
Rp902
(dp903
g18
F0.5
sg19
I1062
sg20
g0
(g21
g22
(dp904
I00
I1017
sI01
I45
stp905
Rp906
(dp907
g19
I1062
sg27
Nsg28
(lp908
(I00
I1017
tp909
a(I01
I45
tp910
asg32
Nsbsg33
I3
sg34
F1063.5
sbs(g8
S'contains(hold)'
p911
tp912
g0
(g14
g2
Ntp913
Rp914
(dp915
g18
F0.5
sg19
I1062
sg20
g0
(g21
g22
(dp916
I00
I1046
sI01
I16
stp917
Rp918
(dp919
g19
I1062
sg27
Nsg28
(lp920
(I00
I1046
tp921
a(I01
I16
tp922
asg32
Nsbsg33
I3
sg34
F1063.5
sbs(g8
S'contains(control)'
p923
tp924
g0
(g14
g2
Ntp925
Rp926
(dp927
g18
F0.5
sg19
I1062
sg20
g0
(g21
g22
(dp928
I00
I1050
sI01
I12
stp929
Rp930
(dp931
g19
I1062
sg27
Nsg28
(lp932
(I00
I1050
tp933
a(I01
I12
tp934
asg32
Nsbsg33
I3
sg34
F1063.5
sbs(g9
S'contains(number)'
p935
tp936
g0
(g14
g2
Ntp937
Rp938
(dp939
g18
F0.5
sg19
I1062
sg20
g0
(g21
g22
(dp940
I00
I1037
sI01
I25
stp941
Rp942
(dp943
g19
I1062
sg27
Nsg28
(lp944
(I00
I1037
tp945
a(I01
I25
tp946
asg32
Nsbsg33
I3
sg34
F1063.5
sbs(g8
S'contains(apps)'
p947
tp948
g0
(g14
g2
Ntp949
Rp950
(dp951
g18
F0.5
sg19
I1062
sg20
g0
(g21
g22
(dp952
I00
I1054
sI01
I8
stp953
Rp954
(dp955
g19
I1062
sg27
Nsg28
(lp956
(I00
I1054
tp957
a(I01
I8
tp958
asg32
Nsbsg33
I3
sg34
F1063.5
sbs(g8
S'contains(risk)'
p959
tp960
g0
(g14
g2
Ntp961
Rp962
(dp963
g18
F0.5
sg19
I1062
sg20
g0
(g21
g22
(dp964
I00
I1027
sI01
I35
stp965
Rp966
(dp967
g19
I1062
sg27
Nsg28
(lp968
(I00
I1027
tp969
a(I01
I35
tp970
asg32
Nsbsg33
I3
sg34
F1063.5
sbs(g9
S'contains(talk)'
p971
tp972
g0
(g14
g2
Ntp973
Rp974
(dp975
g18
F0.5
sg19
I1062
sg20
g0
(g21
g22
(dp976
I00
I1043
sI01
I19
stp977
Rp978
(dp979
g19
I1062
sg27
Nsg28
(lp980
(I00
I1043
tp981
a(I01
I19
tp982
asg32
Nsbsg33
I3
sg34
F1063.5
sbs(g8
S'contains(lend)'
p983
tp984
g0
(g14
g2
Ntp985
Rp986
(dp987
g18
F0.5
sg19
I1062
sg20
g0
(g21
g22
(dp988
I00
I1050
sI01
I12
stp989
Rp990
(dp991
g19
I1062
sg27
Nsg28
(lp992
(I00
I1050
tp993
a(I01
I12
tp994
asg32
Nsbsg33
I3
sg34
F1063.5
sbs(g9
S'contains(deal)'
p995
tp996
g0
(g14
g2
Ntp997
Rp998
(dp999
g18
F0.5
sg19
I1062
sg20
g0
(g21
g22
(dp1000
I00
I1003
sI01
I59
stp1001
Rp1002
(dp1003
g19
I1062
sg27
Nsg28
(lp1004
(I00
I1003
tp1005
a(I01
I59
tp1006
asg32
Nsbsg33
I3
sg34
F1063.5
sbs(g8
S'contains(announce)'
p1007
tp1008
g0
(g14
g2
Ntp1009
Rp1010
(dp1011
g18
F0.5
sg19
I1062
sg20
g0
(g21
g22
(dp1012
I00
I1046
sI01
I16
stp1013
Rp1014
(dp1015
g19
I1062
sg27
Nsg28
(lp1016
(I00
I1046
tp1017
a(I01
I16
tp1018
asg32
Nsbsg33
I3
sg34
F1063.5
sbs(g8
S'contains(cost)'
p1019
tp1020
g0
(g14
g2
Ntp1021
Rp1022
(dp1023
g18
F0.5
sg19
I1062
sg20
g0
(g21
g22
(dp1024
I00
I1041
sI01
I21
stp1025
Rp1026
(dp1027
g19
I1062
sg27
Nsg28
(lp1028
(I00
I1041
tp1029
a(I01
I21
tp1030
asg32
Nsbsg33
I3
sg34
F1063.5
sbs(g9
S'contains(put)'
p1031
tp1032
g0
(g14
g2
Ntp1033
Rp1034
(dp1035
g18
F0.5
sg19
I1062
sg20
g0
(g21
g22
(dp1036
I00
I1029
sI01
I33
stp1037
Rp1038
(dp1039
g19
I1062
sg27
Nsg28
(lp1040
(I00
I1029
tp1041
a(I01
I33
tp1042
asg32
Nsbsg33
I3
sg34
F1063.5
sbs(g8
S'contains(base)'
p1043
tp1044
g0
(g14
g2
Ntp1045
Rp1046
(dp1047
g18
F0.5
sg19
I1062
sg20
g0
(g21
g22
(dp1048
I00
I1036
sI01
I26
stp1049
Rp1050
(dp1051
g19
I1062
sg27
Nsg28
(lp1052
(I00
I1036
tp1053
a(I01
I26
tp1054
asg32
Nsbsg33
I3
sg34
F1063.5
sbs(g9
S'contains(chairman)'
p1055
tp1056
g0
(g14
g2
Ntp1057
Rp1058
(dp1059
g18
F0.5
sg19
I1062
sg20
g0
(g21
g22
(dp1060
I00
I1048
sI01
I14
stp1061
Rp1062
(dp1063
g19
I1062
sg27
Nsg28
(lp1064
(I00
I1048
tp1065
a(I01
I14
tp1066
asg32
Nsbsg33
I3
sg34
F1063.5
sbs(g8
S'contains(strategy)'
p1067
tp1068
g0
(g14
g2
Ntp1069
Rp1070
(dp1071
g18
F0.5
sg19
I1062
sg20
g0
(g21
g22
(dp1072
I00
I1045
sI01
I17
stp1073
Rp1074
(dp1075
g19
I1062
sg27
Nsg28
(lp1076
(I00
I1045
tp1077
a(I01
I17
tp1078
asg32
Nsbsg33
I3
sg34
F1063.5
sbs(g8
S'contains(exchange)'
p1079
tp1080
g0
(g14
g2
Ntp1081
Rp1082
(dp1083
g18
F0.5
sg19
I1062
sg20
g0
(g21
g22
(dp1084
I00
I1037
sI01
I25
stp1085
Rp1086
(dp1087
g19
I1062
sg27
Nsg28
(lp1088
(I00
I1037
tp1089
a(I01
I25
tp1090
asg32
Nsbsg33
I3
sg34
F1063.5
sbs(g9
S'contains(follow)'
p1091
tp1092
g0
(g14
g2
Ntp1093
Rp1094
(dp1095
g18
F0.5
sg19
I1062
sg20
g0
(g21
g22
(dp1096
I00
I1037
sI01
I25
stp1097
Rp1098
(dp1099
g19
I1062
sg27
Nsg28
(lp1100
(I00
I1037
tp1101
a(I01
I25
tp1102
asg32
Nsbsg33
I3
sg34
F1063.5
sbs(g8
S'contains(founder)'
p1103
tp1104
g0
(g14
g2
Ntp1105
Rp1106
(dp1107
g18
F0.5
sg19
I1062
sg20
g0
(g21
g22
(dp1108
I00
I1048
sI01
I14
stp1109
Rp1110
(dp1111
g19
I1062
sg27
Nsg28
(lp1112
(I00
I1048
tp1113
a(I01
I14
tp1114
asg32
Nsbsg33
I3
sg34
F1063.5
sbs(g9
S'contains(benchmark)'
p1115
tp1116
g0
(g14
g2
Ntp1117
Rp1118
(dp1119
g18
F0.5
sg19
I1062
sg20
g0
(g21
g22
(dp1120
I00
I1050
sI01
I12
stp1121
Rp1122
(dp1123
g19
I1062
sg27
Nsg28
(lp1124
(I00
I1050
tp1125
a(I01
I12
tp1126
asg32
Nsbsg33
I3
sg34
F1063.5
sbs(g9
S'contains(world)'
p1127
tp1128
g0
(g14
g2
Ntp1129
Rp1130
(dp1131
g18
F0.5
sg19
I1062
sg20
g0
(g21
g22
(dp1132
I00
I1034
sI01
I28
stp1133
Rp1134
(dp1135
g19
I1062
sg27
Nsg28
(lp1136
(I00
I1034
tp1137
a(I01
I28
tp1138
asg32
Nsbsg33
I3
sg34
F1063.5
sbs(g9
S'contains(derivative)'
p1139
tp1140
g0
(g14
g2
Ntp1141
Rp1142
(dp1143
g18
F0.5
sg19
I1062
sg20
g0
(g21
g22
(dp1144
I00
I1054
sI01
I8
stp1145
Rp1146
(dp1147
g19
I1062
sg27
Nsg28
(lp1148
(I00
I1054
tp1149
a(I01
I8
tp1150
asg32
Nsbsg33
I3
sg34
F1063.5
sbs(g9
S'contains(believe)'
p1151
tp1152
g0
(g14
g2
Ntp1153
Rp1154
(dp1155
g18
F0.5
sg19
I1062
sg20
g0
(g21
g22
(dp1156
I00
I1043
sI01
I19
stp1157
Rp1158
(dp1159
g19
I1062
sg27
Nsg28
(lp1160
(I00
I1043
tp1161
a(I01
I19
tp1162
asg32
Nsbsg33
I3
sg34
F1063.5
sbs(g8
S'contains(fail)'
p1163
tp1164
g0
(g14
g2
Ntp1165
Rp1166
(dp1167
g18
F0.5
sg19
I1062
sg20
g0
(g21
g22
(dp1168
I00
I1026
sI01
I36
stp1169
Rp1170
(dp1171
g19
I1062
sg27
Nsg28
(lp1172
(I00
I1026
tp1173
a(I01
I36
tp1174
asg32
Nsbsg33
I3
sg34
F1063.5
sbs(g9
S'contains(online)'
p1175
tp1176
g0
(g14
g2
Ntp1177
Rp1178
(dp1179
g18
F0.5
sg19
I1062
sg20
g0
(g21
g22
(dp1180
I00
I1043
sI01
I19
stp1181
Rp1182
(dp1183
g19
I1062
sg27
Nsg28
(lp1184
(I00
I1043
tp1185
a(I01
I19
tp1186
asg32
Nsbsg33
I3
sg34
F1063.5
sbs(g8
S'contains(point)'
p1187
tp1188
g0
(g14
g2
Ntp1189
Rp1190
(dp1191
g18
F0.5
sg19
I1062
sg20
g0
(g21
g22
(dp1192
I00
I1019
sI01
I43
stp1193
Rp1194
(dp1195
g19
I1062
sg27
Nsg28
(lp1196
(I00
I1019
tp1197
a(I01
I43
tp1198
asg32
Nsbsg33
I3
sg34
F1063.5
sbs(g8
S'contains(limit)'
p1199
tp1200
g0
(g14
g2
Ntp1201
Rp1202
(dp1203
g18
F0.5
sg19
I1062
sg20
g0
(g21
g22
(dp1204
I00
I1048
sI01
I14
stp1205
Rp1206
(dp1207
g19
I1062
sg27
Nsg28
(lp1208
(I00
I1048
tp1209
a(I01
I14
tp1210
asg32
Nsbsg33
I3
sg34
F1063.5
sbs(g9
S'contains(target)'
p1211
tp1212
g0
(g14
g2
Ntp1213
Rp1214
(dp1215
g18
F0.5
sg19
I1062
sg20
g0
(g21
g22
(dp1216
I00
I1043
sI01
I19
stp1217
Rp1218
(dp1219
g19
I1062
sg27
Nsg28
(lp1220
(I00
I1043
tp1221
a(I01
I19
tp1222
asg32
Nsbsg33
I3
sg34
F1063.5
sbs(g9
S'contains(tuesday)'
p1223
tp1224
g0
(g14
g2
Ntp1225
Rp1226
(dp1227
g18
F0.5
sg19
I1062
sg20
g0
(g21
g22
(dp1228
I00
I1052
sI01
I10
stp1229
Rp1230
(dp1231
g19
I1062
sg27
Nsg28
(lp1232
(I00
I1052
tp1233
a(I01
I10
tp1234
asg32
Nsbsg33
I3
sg34
F1063.5
sbs(g8
S'contains(plan)'
p1235
tp1236
g0
(g14
g2
Ntp1237
Rp1238
(dp1239
g18
F0.5
sg19
I1062
sg20
g0
(g21
g22
(dp1240
I00
I1046
sI01
I16
stp1241
Rp1242
(dp1243
g19
I1062
sg27
Nsg28
(lp1244
(I00
I1046
tp1245
a(I01
I16
tp1246
asg32
Nsbsg33
I3
sg34
F1063.5
sbs(g9
S'contains(drop)'
p1247
tp1248
g0
(g14
g2
Ntp1249
Rp1250
(dp1251
g18
F0.5
sg19
I1062
sg20
g0
(g21
g22
(dp1252
I00
I1051
sI01
I11
stp1253
Rp1254
(dp1255
g19
I1062
sg27
Nsg28
(lp1256
(I00
I1051
tp1257
a(I01
I11
tp1258
asg32
Nsbsg33
I3
sg34
F1063.5
sbs(g9
S'contains(practice)'
p1259
tp1260
g0
(g14
g2
Ntp1261
Rp1262
(dp1263
g18
F0.5
sg19
I1062
sg20
g0
(g21
g22
(dp1264
I00
I1054
sI01
I8
stp1265
Rp1266
(dp1267
g19
I1062
sg27
Nsg28
(lp1268
(I00
I1054
tp1269
a(I01
I8
tp1270
asg32
Nsbsg33
I3
sg34
F1063.5
sbs(g8
S'contains(lead)'
p1271
tp1272
g0
(g14
g2
Ntp1273
Rp1274
(dp1275
g18
F0.5
sg19
I1062
sg20
g0
(g21
g22
(dp1276
I00
I1033
sI01
I29
stp1277
Rp1278
(dp1279
g19
I1062
sg27
Nsg28
(lp1280
(I00
I1033
tp1281
a(I01
I29
tp1282
asg32
Nsbsg33
I3
sg34
F1063.5
sbs(g8
S'contains(suffer)'
p1283
tp1284
g0
(g14
g2
Ntp1285
Rp1286
(dp1287
g18
F0.5
sg19
I1062
sg20
g0
(g21
g22
(dp1288
I00
I1040
sI01
I22
stp1289
Rp1290
(dp1291
g19
I1062
sg27
Nsg28
(lp1292
(I00
I1040
tp1293
a(I01
I22
tp1294
asg32
Nsbsg33
I3
sg34
F1063.5
sbs(g8
S'contains(firm)'
p1295
tp1296
g0
(g14
g2
Ntp1297
Rp1298
(dp1299
g18
F0.5
sg19
I1062
sg20
g0
(g21
g22
(dp1300
I00
I1041
sI01
I21
stp1301
Rp1302
(dp1303
g19
I1062
sg27
Nsg28
(lp1304
(I00
I1041
tp1305
a(I01
I21
tp1306
asg32
Nsbsg33
I3
sg34
F1063.5
sbs(g8
S'contains(window)'
p1307
tp1308
g0
(g14
g2
Ntp1309
Rp1310
(dp1311
g18
F0.5
sg19
I1062
sg20
g0
(g21
g22
(dp1312
I00
I1042
sI01
I20
stp1313
Rp1314
(dp1315
g19
I1062
sg27
Nsg28
(lp1316
(I00
I1042
tp1317
a(I01
I20
tp1318
asg32
Nsbsg33
I3
sg34
F1063.5
sbs(g8
S'contains(rule)'
p1319
tp1320
g0
(g14
g2
Ntp1321
Rp1322
(dp1323
g18
F0.5
sg19
I1062
sg20
g0
(g21
g22
(dp1324
I00
I1035
sI01
I27
stp1325
Rp1326
(dp1327
g19
I1062
sg27
Nsg28
(lp1328
(I00
I1035
tp1329
a(I01
I27
tp1330
asg32
Nsbsg33
I3
sg34
F1063.5
sbs(g9
S'contains(iphone)'
p1331
tp1332
g0
(g14
g2
Ntp1333
Rp1334
(dp1335
g18
F0.5
sg19
I1062
sg20
g0
(g21
g22
(dp1336
I00
I997
sI01
I65
stp1337
Rp1338
(dp1339
g19
I1062
sg27
Nsg28
(lp1340
(I00
I997
tp1341
a(I01
I65
tp1342
asg32
Nsbsg33
I3
sg34
F1063.5
sbs(g9
S'contains(back)'
p1343
tp1344
g0
(g14
g2
Ntp1345
Rp1346
(dp1347
g18
F0.5
sg19
I1062
sg20
g0
(g21
g22
(dp1348
I00
I1043
sI01
I19
stp1349
Rp1350
(dp1351
g19
I1062
sg27
Nsg28
(lp1352
(I00
I1043
tp1353
a(I01
I19
tp1354
asg32
Nsbsg33
I3
sg34
F1063.5
sbs(g8
S'contains(investigation)'
p1355
tp1356
g0
(g14
g2
Ntp1357
Rp1358
(dp1359
g18
F0.5
sg19
I1062
sg20
g0
(g21
g22
(dp1360
I00
I1041
sI01
I21
stp1361
Rp1362
(dp1363
g19
I1062
sg27
Nsg28
(lp1364
(I00
I1041
tp1365
a(I01
I21
tp1366
asg32
Nsbsg33
I3
sg34
F1063.5
sbs(g9
S'contains(attempt)'
p1367
tp1368
g0
(g14
g2
Ntp1369
Rp1370
(dp1371
g18
F0.5
sg19
I1062
sg20
g0
(g21
g22
(dp1372
I00
I1042
sI01
I20
stp1373
Rp1374
(dp1375
g19
I1062
sg27
Nsg28
(lp1376
(I00
I1042
tp1377
a(I01
I20
tp1378
asg32
Nsbsg33
I3
sg34
F1063.5
sbs(g9
S'contains(performance)'
p1379
tp1380
g0
(g14
g2
Ntp1381
Rp1382
(dp1383
g18
F0.5
sg19
I1062
sg20
g0
(g21
g22
(dp1384
I00
I1048
sI01
I14
stp1385
Rp1386
(dp1387
g19
I1062
sg27
Nsg28
(lp1388
(I00
I1048
tp1389
a(I01
I14
tp1390
asg32
Nsbsg33
I3
sg34
F1063.5
sbs(g8
S'contains(gain)'
p1391
tp1392
g0
(g14
g2
Ntp1393
Rp1394
(dp1395
g18
F0.5
sg19
I1062
sg20
g0
(g21
g22
(dp1396
I00
I1032
sI01
I30
stp1397
Rp1398
(dp1399
g19
I1062
sg27
Nsg28
(lp1400
(I00
I1032
tp1401
a(I01
I30
tp1402
asg32
Nsbsg33
I3
sg34
F1063.5
sbs(g9
S'contains(sue)'
p1403
tp1404
g0
(g14
g2
Ntp1405
Rp1406
(dp1407
g18
F0.5
sg19
I1062
sg20
g0
(g21
g22
(dp1408
I00
I1055
sI01
I7
stp1409
Rp1410
(dp1411
g19
I1062
sg27
Nsg28
(lp1412
(I00
I1055
tp1413
a(I01
I7
tp1414
asg32
Nsbsg33
I3
sg34
F1063.5
sbs(g9
S'contains(loss)'
p1415
tp1416
g0
(g14
g2
Ntp1417
Rp1418
(dp1419
g18
F0.5
sg19
I1062
sg20
g0
(g21
g22
(dp1420
I00
I1015
sI01
I47
stp1421
Rp1422
(dp1423
g19
I1062
sg27
Nsg28
(lp1424
(I00
I1015
tp1425
a(I01
I47
tp1426
asg32
Nsbsg33
I3
sg34
F1063.5
sbs(g9
S'contains(head)'
p1427
tp1428
g0
(g14
g2
Ntp1429
Rp1430
(dp1431
g18
F0.5
sg19
I1062
sg20
g0
(g21
g22
(dp1432
I00
I1039
sI01
I23
stp1433
Rp1434
(dp1435
g19
I1062
sg27
Nsg28
(lp1436
(I00
I1039
tp1437
a(I01
I23
tp1438
asg32
Nsbsg33
I3
sg34
F1063.5
sbs(g9
S'contains(activity)'
p1439
tp1440
g0
(g14
g2
Ntp1441
Rp1442
(dp1443
g18
F0.5
sg19
I1062
sg20
g0
(g21
g22
(dp1444
I00
I1051
sI01
I11
stp1445
Rp1446
(dp1447
g19
I1062
sg27
Nsg28
(lp1448
(I00
I1051
tp1449
a(I01
I11
tp1450
asg32
Nsbsg33
I3
sg34
F1063.5
sbs(g9
S'contains(cash)'
p1451
tp1452
g0
(g14
g2
Ntp1453
Rp1454
(dp1455
g18
F0.5
sg19
I1062
sg20
g0
(g21
g22
(dp1456
I00
I1045
sI01
I17
stp1457
Rp1458
(dp1459
g19
I1062
sg27
Nsg28
(lp1460
(I00
I1045
tp1461
a(I01
I17
tp1462
asg32
Nsbsg33
I3
sg34
F1063.5
sbs(g9
S'contains(lend)'
p1463
tp1464
g0
(g14
g2
Ntp1465
Rp1466
(dp1467
g18
F0.5
sg19
I1062
sg20
g0
(g21
g22
(dp1468
I00
I1050
sI01
I12
stp1469
Rp1470
(dp1471
g19
I1062
sg27
Nsg28
(lp1472
(I00
I1050
tp1473
a(I01
I12
tp1474
asg32
Nsbsg33
I3
sg34
F1063.5
sbs(g8
S'contains(launch)'
p1475
tp1476
g0
(g14
g2
Ntp1477
Rp1478
(dp1479
g18
F0.5
sg19
I1062
sg20
g0
(g21
g22
(dp1480
I00
I1028
sI01
I34
stp1481
Rp1482
(dp1483
g19
I1062
sg27
Nsg28
(lp1484
(I00
I1028
tp1485
a(I01
I34
tp1486
asg32
Nsbsg33
I3
sg34
F1063.5
sbs(g9
S'contains(announce)'
p1487
tp1488
g0
(g14
g2
Ntp1489
Rp1490
(dp1491
g18
F0.5
sg19
I1062
sg20
g0
(g21
g22
(dp1492
I00
I1042
sI01
I20
stp1493
Rp1494
(dp1495
g19
I1062
sg27
Nsg28
(lp1496
(I00
I1042
tp1497
a(I01
I20
tp1498
asg32
Nsbsg33
I3
sg34
F1063.5
sbs(g8
S'contains(growth)'
p1499
tp1500
g0
(g14
g2
Ntp1501
Rp1502
(dp1503
g18
F0.5
sg19
I1062
sg20
g0
(g21
g22
(dp1504
I00
I1034
sI01
I28
stp1505
Rp1506
(dp1507
g19
I1062
sg27
Nsg28
(lp1508
(I00
I1034
tp1509
a(I01
I28
tp1510
asg32
Nsbsg33
I3
sg34
F1063.5
sbs(g9
S'contains(product)'
p1511
tp1512
g0
(g14
g2
Ntp1513
Rp1514
(dp1515
g18
F0.5
sg19
I1062
sg20
g0
(g21
g22
(dp1516
I00
I1017
sI01
I45
stp1517
Rp1518
(dp1519
g19
I1062
sg27
Nsg28
(lp1520
(I00
I1017
tp1521
a(I01
I45
tp1522
asg32
Nsbsg33
I3
sg34
F1063.5
sbs(g9
S'contains(group)'
p1523
tp1524
g0
(g14
g2
Ntp1525
Rp1526
(dp1527
g18
F0.5
sg19
I1062
sg20
g0
(g21
g22
(dp1528
I00
I1012
sI01
I50
stp1529
Rp1530
(dp1531
g19
I1062
sg27
Nsg28
(lp1532
(I00
I1012
tp1533
a(I01
I50
tp1534
asg32
Nsbsg33
I3
sg34
F1063.5
sbs(g8
S'contains(life)'
p1535
tp1536
g0
(g14
g2
Ntp1537
Rp1538
(dp1539
g18
F0.5
sg19
I1062
sg20
g0
(g21
g22
(dp1540
I00
I1051
sI01
I11
stp1541
Rp1542
(dp1543
g19
I1062
sg27
Nsg28
(lp1544
(I00
I1051
tp1545
a(I01
I11
tp1546
asg32
Nsbsg33
I3
sg34
F1063.5
sbs(g8
S'contains(sign)'
p1547
tp1548
g0
(g14
g2
Ntp1549
Rp1550
(dp1551
g18
F0.5
sg19
I1062
sg20
g0
(g21
g22
(dp1552
I00
I1054
sI01
I8
stp1553
Rp1554
(dp1555
g19
I1062
sg27
Nsg28
(lp1556
(I00
I1054
tp1557
a(I01
I8
tp1558
asg32
Nsbsg33
I3
sg34
F1063.5
sbs(g9
S'contains(face)'
p1559
tp1560
g0
(g14
g2
Ntp1561
Rp1562
(dp1563
g18
F0.5
sg19
I1062
sg20
g0
(g21
g22
(dp1564
I00
I1033
sI01
I29
stp1565
Rp1566
(dp1567
g19
I1062
sg27
Nsg28
(lp1568
(I00
I1033
tp1569
a(I01
I29
tp1570
asg32
Nsbsg33
I3
sg34
F1063.5
sbs(g9
S'contains(try)'
p1571
tp1572
g0
(g14
g2
Ntp1573
Rp1574
(dp1575
g18
F0.5
sg19
I1062
sg20
g0
(g21
g22
(dp1576
I00
I1044
sI01
I18
stp1577
Rp1578
(dp1579
g19
I1062
sg27
Nsg28
(lp1580
(I00
I1044
tp1581
a(I01
I18
tp1582
asg32
Nsbsg33
I3
sg34
F1063.5
sbs(g8
S'contains(employee)'
p1583
tp1584
g0
(g14
g2
Ntp1585
Rp1586
(dp1587
g18
F0.5
sg19
I1062
sg20
g0
(g21
g22
(dp1588
I00
I1045
sI01
I17
stp1589
Rp1590
(dp1591
g19
I1062
sg27
Nsg28
(lp1592
(I00
I1045
tp1593
a(I01
I17
tp1594
asg32
Nsbsg33
I3
sg34
F1063.5
sbs(g9
S'contains(feature)'
p1595
tp1596
g0
(g14
g2
Ntp1597
Rp1598
(dp1599
g18
F0.5
sg19
I1062
sg20
g0
(g21
g22
(dp1600
I00
I1052
sI01
I10
stp1601
Rp1602
(dp1603
g19
I1062
sg27
Nsg28
(lp1604
(I00
I1052
tp1605
a(I01
I10
tp1606
asg32
Nsbsg33
I3
sg34
F1063.5
sbs(g9
S'contains(network)'
p1607
tp1608
g0
(g14
g2
Ntp1609
Rp1610
(dp1611
g18
F0.5
sg19
I1062
sg20
g0
(g21
g22
(dp1612
I00
I1031
sI01
I31
stp1613
Rp1614
(dp1615
g19
I1062
sg27
Nsg28
(lp1616
(I00
I1031
tp1617
a(I01
I31
tp1618
asg32
Nsbsg33
I3
sg34
F1063.5
sbs(g8
S'contains(report)'
p1619
tp1620
g0
(g14
g2
Ntp1621
Rp1622
(dp1623
g18
F0.5
sg19
I1062
sg20
g0
(g21
g22
(dp1624
I00
I1009
sI01
I53
stp1625
Rp1626
(dp1627
g19
I1062
sg27
Nsg28
(lp1628
(I00
I1009
tp1629
a(I01
I53
tp1630
asg32
Nsbsg33
I3
sg34
F1063.5
sbs(g8
S'contains(question)'
p1631
tp1632
g0
(g14
g2
Ntp1633
Rp1634
(dp1635
g18
F0.5
sg19
I1062
sg20
g0
(g21
g22
(dp1636
I00
I1037
sI01
I25
stp1637
Rp1638
(dp1639
g19
I1062
sg27
Nsg28
(lp1640
(I00
I1037
tp1641
a(I01
I25
tp1642
asg32
Nsbsg33
I3
sg34
F1063.5
sbs(g8
S'contains(trader)'
p1643
tp1644
g0
(g14
g2
Ntp1645
Rp1646
(dp1647
g18
F0.5
sg19
I1062
sg20
g0
(g21
g22
(dp1648
I00
I1043
sI01
I19
stp1649
Rp1650
(dp1651
g19
I1062
sg27
Nsg28
(lp1652
(I00
I1043
tp1653
a(I01
I19
tp1654
asg32
Nsbsg33
I3
sg34
F1063.5
sbs(g8
S'contains(pc)'
p1655
tp1656
g0
(g14
g2
Ntp1657
Rp1658
(dp1659
g18
F0.5
sg19
I1062
sg20
g0
(g21
g22
(dp1660
I00
I1047
sI01
I15
stp1661
Rp1662
(dp1663
g19
I1062
sg27
Nsg28
(lp1664
(I00
I1047
tp1665
a(I01
I15
tp1666
asg32
Nsbsg33
I3
sg34
F1063.5
sbs(g9
S'contains(suffer)'
p1667
tp1668
g0
(g14
g2
Ntp1669
Rp1670
(dp1671
g18
F0.5
sg19
I1062
sg20
g0
(g21
g22
(dp1672
I00
I1053
sI01
I9
stp1673
Rp1674
(dp1675
g19
I1062
sg27
Nsg28
(lp1676
(I00
I1053
tp1677
a(I01
I9
tp1678
asg32
Nsbsg33
I3
sg34
F1063.5
sbs(g9
S'contains(design)'
p1679
tp1680
g0
(g14
g2
Ntp1681
Rp1682
(dp1683
g18
F0.5
sg19
I1062
sg20
g0
(g21
g22
(dp1684
I00
I1041
sI01
I21
stp1685
Rp1686
(dp1687
g19
I1062
sg27
Nsg28
(lp1688
(I00
I1041
tp1689
a(I01
I21
tp1690
asg32
Nsbsg33
I3
sg34
F1063.5
sbs(g8
S'contains(set)'
p1691
tp1692
g0
(g14
g2
Ntp1693
Rp1694
(dp1695
g18
F0.5
sg19
I1062
sg20
g0
(g21
g22
(dp1696
I00
I1034
sI01
I28
stp1697
Rp1698
(dp1699
g19
I1062
sg27
Nsg28
(lp1700
(I00
I1034
tp1701
a(I01
I28
tp1702
asg32
Nsbsg33
I3
sg34
F1063.5
sbs(g9
S'contains(fall)'
p1703
tp1704
g0
(g14
g2
Ntp1705
Rp1706
(dp1707
g18
F0.5
sg19
I1062
sg20
g0
(g21
g22
(dp1708
I00
I1042
sI01
I20
stp1709
Rp1710
(dp1711
g19
I1062
sg27
Nsg28
(lp1712
(I00
I1042
tp1713
a(I01
I20
tp1714
asg32
Nsbsg33
I3
sg34
F1063.5
sbs(g8
S'contains(fund)'
p1715
tp1716
g0
(g14
g2
Ntp1717
Rp1718
(dp1719
g18
F0.5
sg19
I1062
sg20
g0
(g21
g22
(dp1720
I00
I1018
sI01
I44
stp1721
Rp1722
(dp1723
g19
I1062
sg27
Nsg28
(lp1724
(I00
I1018
tp1725
a(I01
I44
tp1726
asg32
Nsbsg33
I3
sg34
F1063.5
sbs(g9
S'contains(give)'
p1727
tp1728
g0
(g14
g2
Ntp1729
Rp1730
(dp1731
g18
F0.5
sg19
I1062
sg20
g0
(g21
g22
(dp1732
I00
I1019
sI01
I43
stp1733
Rp1734
(dp1735
g19
I1062
sg27
Nsg28
(lp1736
(I00
I1019
tp1737
a(I01
I43
tp1738
asg32
Nsbsg33
I3
sg34
F1063.5
sbs(g9
S'contains(allege)'
p1739
tp1740
g0
(g14
g2
Ntp1741
Rp1742
(dp1743
g18
F0.5
sg19
I1062
sg20
g0
(g21
g22
(dp1744
I00
I1050
sI01
I12
stp1745
Rp1746
(dp1747
g19
I1062
sg27
Nsg28
(lp1748
(I00
I1050
tp1749
a(I01
I12
tp1750
asg32
Nsbsg33
I3
sg34
F1063.5
sbs(g8
S'contains(sue)'
p1751
tp1752
g0
(g14
g2
Ntp1753
Rp1754
(dp1755
g18
F0.5
sg19
I1062
sg20
g0
(g21
g22
(dp1756
I00
I1040
sI01
I22
stp1757
Rp1758
(dp1759
g19
I1062
sg27
Nsg28
(lp1760
(I00
I1040
tp1761
a(I01
I22
tp1762
asg32
Nsbsg33
I3
sg34
F1063.5
sbs(g8
S'contains(value)'
p1763
tp1764
g0
(g14
g2
Ntp1765
Rp1766
(dp1767
g18
F0.5
sg19
I1062
sg20
g0
(g21
g22
(dp1768
I00
I1042
sI01
I20
stp1769
Rp1770
(dp1771
g19
I1062
sg27
Nsg28
(lp1772
(I00
I1042
tp1773
a(I01
I20
tp1774
asg32
Nsbsg33
I3
sg34
F1063.5
sbs(g9
S'contains(hardware)'
p1775
tp1776
g0
(g14
g2
Ntp1777
Rp1778
(dp1779
g18
F0.5
sg19
I1062
sg20
g0
(g21
g22
(dp1780
I00
I1048
sI01
I14
stp1781
Rp1782
(dp1783
g19
I1062
sg27
Nsg28
(lp1784
(I00
I1048
tp1785
a(I01
I14
tp1786
asg32
Nsbsg33
I3
sg34
F1063.5
sbs(g9
S'contains(information)'
p1787
tp1788
g0
(g14
g2
Ntp1789
Rp1790
(dp1791
g18
F0.5
sg19
I1062
sg20
g0
(g21
g22
(dp1792
I00
I1038
sI01
I24
stp1793
Rp1794
(dp1795
g19
I1062
sg27
Nsg28
(lp1796
(I00
I1038
tp1797
a(I01
I24
tp1798
asg32
Nsbsg33
I3
sg34
F1063.5
sbs(g9
S'contains(decision)'
p1799
tp1800
g0
(g14
g2
Ntp1801
Rp1802
(dp1803
g18
F0.5
sg19
I1062
sg20
g0
(g21
g22
(dp1804
I00
I1053
sI01
I9
stp1805
Rp1806
(dp1807
g19
I1062
sg27
Nsg28
(lp1808
(I00
I1053
tp1809
a(I01
I9
tp1810
asg32
Nsbsg33
I3
sg34
F1063.5
sbs(g9
S'contains(launch)'
p1811
tp1812
g0
(g14
g2
Ntp1813
Rp1814
(dp1815
g18
F0.5
sg19
I1062
sg20
g0
(g21
g22
(dp1816
I00
I996
sI01
I66
stp1817
Rp1818
(dp1819
g19
I1062
sg27
Nsg28
(lp1820
(I00
I996
tp1821
a(I01
I66
tp1822
asg32
Nsbsg33
I3
sg34
F1063.5
sbs(g9
S'contains(release)'
p1823
tp1824
g0
(g14
g2
Ntp1825
Rp1826
(dp1827
g18
F0.5
sg19
I1062
sg20
g0
(g21
g22
(dp1828
I00
I1041
sI01
I21
stp1829
Rp1830
(dp1831
g19
I1062
sg27
Nsg28
(lp1832
(I00
I1041
tp1833
a(I01
I21
tp1834
asg32
Nsbsg33
I3
sg34
F1063.5
sbs(g9
S'contains(concern)'
p1835
tp1836
g0
(g14
g2
Ntp1837
Rp1838
(dp1839
g18
F0.5
sg19
I1062
sg20
g0
(g21
g22
(dp1840
I00
I1035
sI01
I27
stp1841
Rp1842
(dp1843
g19
I1062
sg27
Nsg28
(lp1844
(I00
I1035
tp1845
a(I01
I27
tp1846
asg32
Nsbsg33
I3
sg34
F1063.5
sbs(g8
S"contains(bank's)"
p1847
tp1848
g0
(g14
g2
Ntp1849
Rp1850
(dp1851
g18
F0.5
sg19
I1062
sg20
g0
(g21
g22
(dp1852
I00
I1044
sI01
I18
stp1853
Rp1854
(dp1855
g19
I1062
sg27
Nsg28
(lp1856
(I00
I1044
tp1857
a(I01
I18
tp1858
asg32
Nsbsg33
I3
sg34
F1063.5
sbs(g9
S'contains(life)'
p1859
tp1860
g0
(g14
g2
Ntp1861
Rp1862
(dp1863
g18
F0.5
sg19
I1062
sg20
g0
(g21
g22
(dp1864
I00
I1049
sI01
I13
stp1865
Rp1866
(dp1867
g19
I1062
sg27
Nsg28
(lp1868
(I00
I1049
tp1869
a(I01
I13
tp1870
asg32
Nsbsg33
I3
sg34
F1063.5
sbs(g9
S'contains(appear)'
p1871
tp1872
g0
(g14
g2
Ntp1873
Rp1874
(dp1875
g18
F0.5
sg19
I1062
sg20
g0
(g21
g22
(dp1876
I00
I1049
sI01
I13
stp1877
Rp1878
(dp1879
g19
I1062
sg27
Nsg28
(lp1880
(I00
I1049
tp1881
a(I01
I13
tp1882
asg32
Nsbsg33
I3
sg34
F1063.5
sbs(g9
S'contains(provide)'
p1883
tp1884
g0
(g14
g2
Ntp1885
Rp1886
(dp1887
g18
F0.5
sg19
I1062
sg20
g0
(g21
g22
(dp1888
I00
I1046
sI01
I16
stp1889
Rp1890
(dp1891
g19
I1062
sg27
Nsg28
(lp1892
(I00
I1046
tp1893
a(I01
I16
tp1894
asg32
Nsbsg33
I3
sg34
F1063.5
sbs(g9
S'contains(board)'
p1895
tp1896
g0
(g14
g2
Ntp1897
Rp1898
(dp1899
g18
F0.5
sg19
I1062
sg20
g0
(g21
g22
(dp1900
I00
I1049
sI01
I13
stp1901
Rp1902
(dp1903
g19
I1062
sg27
Nsg28
(lp1904
(I00
I1049
tp1905
a(I01
I13
tp1906
asg32
Nsbsg33
I3
sg34
F1063.5
sbs(g9
S'contains(authority)'
p1907
tp1908
g0
(g14
g2
Ntp1909
Rp1910
(dp1911
g18
F0.5
sg19
I1062
sg20
g0
(g21
g22
(dp1912
I00
I1054
sI01
I8
stp1913
Rp1914
(dp1915
g19
I1062
sg27
Nsg28
(lp1916
(I00
I1054
tp1917
a(I01
I8
tp1918
asg32
Nsbsg33
I3
sg34
F1063.5
sbs(g8
S'contains(director)'
p1919
tp1920
g0
(g14
g2
Ntp1921
Rp1922
(dp1923
g18
F0.5
sg19
I1062
sg20
g0
(g21
g22
(dp1924
I00
I1050
sI01
I12
stp1925
Rp1926
(dp1927
g19
I1062
sg27
Nsg28
(lp1928
(I00
I1050
tp1929
a(I01
I12
tp1930
asg32
Nsbsg33
I3
sg34
F1063.5
sbs(g8
S'contains(need)'
p1931
tp1932
g0
(g14
g2
Ntp1933
Rp1934
(dp1935
g18
F0.5
sg19
I1062
sg20
g0
(g21
g22
(dp1936
I00
I1051
sI01
I11
stp1937
Rp1938
(dp1939
g19
I1062
sg27
Nsg28
(lp1940
(I00
I1051
tp1941
a(I01
I11
tp1942
asg32
Nsbsg33
I3
sg34
F1063.5
sbs(g9
S'contains(rise)'
p1943
tp1944
g0
(g14
g2
Ntp1945
Rp1946
(dp1947
g18
F0.5
sg19
I1062
sg20
g0
(g21
g22
(dp1948
I00
I986
sI01
I76
stp1949
Rp1950
(dp1951
g19
I1062
sg27
Nsg28
(lp1952
(I00
I986
tp1953
a(I01
I76
tp1954
asg32
Nsbsg33
I3
sg34
F1063.5
sbs(g9
S'contains(economy)'
p1955
tp1956
g0
(g14
g2
Ntp1957
Rp1958
(dp1959
g18
F0.5
sg19
I1062
sg20
g0
(g21
g22
(dp1960
I00
I1046
sI01
I16
stp1961
Rp1962
(dp1963
g19
I1062
sg27
Nsg28
(lp1964
(I00
I1046
tp1965
a(I01
I16
tp1966
asg32
Nsbsg33
I3
sg34
F1063.5
sbs(g8
S'contains(consumer)'
p1967
tp1968
g0
(g14
g2
Ntp1969
Rp1970
(dp1971
g18
F0.5
sg19
I1062
sg20
g0
(g21
g22
(dp1972
I00
I1036
sI01
I26
stp1973
Rp1974
(dp1975
g19
I1062
sg27
Nsg28
(lp1976
(I00
I1036
tp1977
a(I01
I26
tp1978
asg32
Nsbsg33
I3
sg34
F1063.5
sbs(g8
S'contains(way)'
p1979
tp1980
g0
(g14
g2
Ntp1981
Rp1982
(dp1983
g18
F0.5
sg19
I1062
sg20
g0
(g21
g22
(dp1984
I00
I1036
sI01
I26
stp1985
Rp1986
(dp1987
g19
I1062
sg27
Nsg28
(lp1988
(I00
I1036
tp1989
a(I01
I26
tp1990
asg32
Nsbsg33
I3
sg34
F1063.5
sbs(g9
S'contains(seek)'
p1991
tp1992
g0
(g14
g2
Ntp1993
Rp1994
(dp1995
g18
F0.5
sg19
I1062
sg20
g0
(g21
g22
(dp1996
I00
I1042
sI01
I20
stp1997
Rp1998
(dp1999
g19
I1062
sg27
Nsg28
(lp2000
(I00
I1042
tp2001
a(I01
I20
tp2002
asg32
Nsbsg33
I3
sg34
F1063.5
sbs(g8
S'contains(increase)'
p2003
tp2004
g0
(g14
g2
Ntp2005
Rp2006
(dp2007
g18
F0.5
sg19
I1062
sg20
g0
(g21
g22
(dp2008
I00
I1039
sI01
I23
stp2009
Rp2010
(dp2011
g19
I1062
sg27
Nsg28
(lp2012
(I00
I1039
tp2013
a(I01
I23
tp2014
asg32
Nsbsg33
I3
sg34
F1063.5
sbs(g9
S'contains(complaint)'
p2015
tp2016
g0
(g14
g2
Ntp2017
Rp2018
(dp2019
g18
F0.5
sg19
I1062
sg20
g0
(g21
g22
(dp2020
I00
I1051
sI01
I11
stp2021
Rp2022
(dp2023
g19
I1062
sg27
Nsg28
(lp2024
(I00
I1051
tp2025
a(I01
I11
tp2026
asg32
Nsbsg33
I3
sg34
F1063.5
sbs(g8
S'contains(comment)'
p2027
tp2028
g0
(g14
g2
Ntp2029
Rp2030
(dp2031
g18
F0.5
sg19
I1062
sg20
g0
(g21
g22
(dp2032
I00
I1039
sI01
I23
stp2033
Rp2034
(dp2035
g19
I1062
sg27
Nsg28
(lp2036
(I00
I1039
tp2037
a(I01
I23
tp2038
asg32
Nsbsg33
I3
sg34
F1063.5
sbs(g8
S'contains(start)'
p2039
tp2040
g0
(g14
g2
Ntp2041
Rp2042
(dp2043
g18
F0.5
sg19
I1062
sg20
g0
(g21
g22
(dp2044
I00
I1041
sI01
I21
stp2045
Rp2046
(dp2047
g19
I1062
sg27
Nsg28
(lp2048
(I00
I1041
tp2049
a(I01
I21
tp2050
asg32
Nsbsg33
I3
sg34
F1063.5
sbs(g9
S'contains(issue)'
p2051
tp2052
g0
(g14
g2
Ntp2053
Rp2054
(dp2055
g18
F0.5
sg19
I1062
sg20
g0
(g21
g22
(dp2056
I00
I1032
sI01
I30
stp2057
Rp2058
(dp2059
g19
I1062
sg27
Nsg28
(lp2060
(I00
I1032
tp2061
a(I01
I30
tp2062
asg32
Nsbsg33
I3
sg34
F1063.5
sbs(g9
S'contains(report)'
p2063
tp2064
g0
(g14
g2
Ntp2065
Rp2066
(dp2067
g18
F0.5
sg19
I1062
sg20
g0
(g21
g22
(dp2068
I00
I1007
sI01
I55
stp2069
Rp2070
(dp2071
g19
I1062
sg27
Nsg28
(lp2072
(I00
I1007
tp2073
a(I01
I55
tp2074
asg32
Nsbsg33
I3
sg34
F1063.5
sbs(g8
S'contains(fell)'
p2075
tp2076
g0
(g14
g2
Ntp2077
Rp2078
(dp2079
g18
F0.5
sg19
I1062
sg20
g0
(g21
g22
(dp2080
I00
I1000
sI01
I62
stp2081
Rp2082
(dp2083
g19
I1062
sg27
Nsg28
(lp2084
(I00
I1000
tp2085
a(I01
I62
tp2086
asg32
Nsbsg33
I3
sg34
F1063.5
sbs(g9
S'contains(focus)'
p2087
tp2088
g0
(g14
g2
Ntp2089
Rp2090
(dp2091
g18
F0.5
sg19
I1062
sg20
g0
(g21
g22
(dp2092
I00
I1041
sI01
I21
stp2093
Rp2094
(dp2095
g19
I1062
sg27
Nsg28
(lp2096
(I00
I1041
tp2097
a(I01
I21
tp2098
asg32
Nsbsg33
I3
sg34
F1063.5
sbs(g8
S'contains(internet)'
p2099
tp2100
g0
(g14
g2
Ntp2101
Rp2102
(dp2103
g18
F0.5
sg19
I1062
sg20
g0
(g21
g22
(dp2104
I00
I1033
sI01
I29
stp2105
Rp2106
(dp2107
g19
I1062
sg27
Nsg28
(lp2108
(I00
I1033
tp2109
a(I01
I29
tp2110
asg32
Nsbsg33
I3
sg34
F1063.5
sbs(g8
S'contains(device)'
p2111
tp2112
g0
(g14
g2
Ntp2113
Rp2114
(dp2115
g18
F0.5
sg19
I1062
sg20
g0
(g21
g22
(dp2116
I00
I1039
sI01
I23
stp2117
Rp2118
(dp2119
g19
I1062
sg27
Nsg28
(lp2120
(I00
I1039
tp2121
a(I01
I23
tp2122
asg32
Nsbsg33
I3
sg34
F1063.5
sbs(g9
S'contains(charge)'
p2123
tp2124
g0
(g14
g2
Ntp2125
Rp2126
(dp2127
g18
F0.5
sg19
I1062
sg20
g0
(g21
g22
(dp2128
I00
I1040
sI01
I22
stp2129
Rp2130
(dp2131
g19
I1062
sg27
Nsg28
(lp2132
(I00
I1040
tp2133
a(I01
I22
tp2134
asg32
Nsbsg33
I3
sg34
F1063.5
sbs(g8
S'contains(smartphones)'
p2135
tp2136
g0
(g14
g2
Ntp2137
Rp2138
(dp2139
g18
F0.5
sg19
I1062
sg20
g0
(g21
g22
(dp2140
I00
I1052
sI01
I10
stp2141
Rp2142
(dp2143
g19
I1062
sg27
Nsg28
(lp2144
(I00
I1052
tp2145
a(I01
I10
tp2146
asg32
Nsbsg33
I3
sg34
F1063.5
sbs(g8
S'contains(order)'
p2147
tp2148
g0
(g14
g2
Ntp2149
Rp2150
(dp2151
g18
F0.5
sg19
I1062
sg20
g0
(g21
g22
(dp2152
I00
I1043
sI01
I19
stp2153
Rp2154
(dp2155
g19
I1062
sg27
Nsg28
(lp2156
(I00
I1043
tp2157
a(I01
I19
tp2158
asg32
Nsbsg33
I3
sg34
F1063.5
sbs(g9
S'contains(term)'
p2159
tp2160
g0
(g14
g2
Ntp2161
Rp2162
(dp2163
g18
F0.5
sg19
I1062
sg20
g0
(g21
g22
(dp2164
I00
I1036
sI01
I26
stp2165
Rp2166
(dp2167
g19
I1062
sg27
Nsg28
(lp2168
(I00
I1036
tp2169
a(I01
I26
tp2170
asg32
Nsbsg33
I3
sg34
F1063.5
sbs(g8
S'contains(design)'
p2171
tp2172
g0
(g14
g2
Ntp2173
Rp2174
(dp2175
g18
F0.5
sg19
I1062
sg20
g0
(g21
g22
(dp2176
I00
I1044
sI01
I18
stp2177
Rp2178
(dp2179
g19
I1062
sg27
Nsg28
(lp2180
(I00
I1044
tp2181
a(I01
I18
tp2182
asg32
Nsbsg33
I3
sg34
F1063.5
sbs(g9
S'contains(set)'
p2183
tp2184
g0
(g14
g2
Ntp2185
Rp2186
(dp2187
g18
F0.5
sg19
I1062
sg20
g0
(g21
g22
(dp2188
I00
I1022
sI01
I40
stp2189
Rp2190
(dp2191
g19
I1062
sg27
Nsg28
(lp2192
(I00
I1022
tp2193
a(I01
I40
tp2194
asg32
Nsbsg33
I3
sg34
F1063.5
sbs(g8
S'contains(investment)'
p2195
tp2196
g0
(g14
g2
Ntp2197
Rp2198
(dp2199
g18
F0.5
sg19
I1062
sg20
g0
(g21
g22
(dp2200
I00
I1004
sI01
I58
stp2201
Rp2202
(dp2203
g19
I1062
sg27
Nsg28
(lp2204
(I00
I1004
tp2205
a(I01
I58
tp2206
asg32
Nsbsg33
I3
sg34
F1063.5
sbs(g9
S'contains(place)'
p2207
tp2208
g0
(g14
g2
Ntp2209
Rp2210
(dp2211
g18
F0.5
sg19
I1062
sg20
g0
(g21
g22
(dp2212
I00
I1047
sI01
I15
stp2213
Rp2214
(dp2215
g19
I1062
sg27
Nsg28
(lp2216
(I00
I1047
tp2217
a(I01
I15
tp2218
asg32
Nsbsg33
I3
sg34
F1063.5
sbs(g8
S'contains(income)'
p2219
tp2220
g0
(g14
g2
Ntp2221
Rp2222
(dp2223
g18
F0.5
sg19
I1062
sg20
g0
(g21
g22
(dp2224
I00
I1052
sI01
I10
stp2225
Rp2226
(dp2227
g19
I1062
sg27
Nsg28
(lp2228
(I00
I1052
tp2229
a(I01
I10
tp2230
asg32
Nsbsg33
I3
sg34
F1063.5
sbs(g9
S'contains(period)'
p2231
tp2232
g0
(g14
g2
Ntp2233
Rp2234
(dp2235
g18
F0.5
sg19
I1062
sg20
g0
(g21
g22
(dp2236
I00
I1043
sI01
I19
stp2237
Rp2238
(dp2239
g19
I1062
sg27
Nsg28
(lp2240
(I00
I1043
tp2241
a(I01
I19
tp2242
asg32
Nsbsg33
I3
sg34
F1063.5
sbs(g9
S'contains(page)'
p2243
tp2244
g0
(g14
g2
Ntp2245
Rp2246
(dp2247
g18
F0.5
sg19
I1062
sg20
g0
(g21
g22
(dp2248
I00
I1046
sI01
I16
stp2249
Rp2250
(dp2251
g19
I1062
sg27
Nsg28
(lp2252
(I00
I1046
tp2253
a(I01
I16
tp2254
asg32
Nsbsg33
I3
sg34
F1063.5
sbs(g8
S'contains(customer)'
p2255
tp2256
g0
(g14
g2
Ntp2257
Rp2258
(dp2259
g18
F0.5
sg19
I1062
sg20
g0
(g21
g22
(dp2260
I00
I1047
sI01
I15
stp2261
Rp2262
(dp2263
g19
I1062
sg27
Nsg28
(lp2264
(I00
I1047
tp2265
a(I01
I15
tp2266
asg32
Nsbsg33
I3
sg34
F1063.5
sbs(g9
S'contains(security)'
p2267
tp2268
g0
(g14
g2
Ntp2269
Rp2270
(dp2271
g18
F0.5
sg19
I1062
sg20
g0
(g21
g22
(dp2272
I00
I1040
sI01
I22
stp2273
Rp2274
(dp2275
g19
I1062
sg27
Nsg28
(lp2276
(I00
I1040
tp2277
a(I01
I22
tp2278
asg32
Nsbsg33
I3
sg34
F1063.5
sbs(g9
S'contains(regulator)'
p2279
tp2280
g0
(g14
g2
Ntp2281
Rp2282
(dp2283
g18
F0.5
sg19
I1062
sg20
g0
(g21
g22
(dp2284
I00
I1046
sI01
I16
stp2285
Rp2286
(dp2287
g19
I1062
sg27
Nsg28
(lp2288
(I00
I1046
tp2289
a(I01
I16
tp2290
asg32
Nsbsg33
I3
sg34
F1063.5
sbs(g9
S'contains(draw)'
p2291
tp2292
g0
(g14
g2
Ntp2293
Rp2294
(dp2295
g18
F0.5
sg19
I1062
sg20
g0
(g21
g22
(dp2296
I00
I1047
sI01
I15
stp2297
Rp2298
(dp2299
g19
I1062
sg27
Nsg28
(lp2300
(I00
I1047
tp2301
a(I01
I15
tp2302
asg32
Nsbsg33
I3
sg34
F1063.5
sbs(g8
S'contains(hit)'
p2303
tp2304
g0
(g14
g2
Ntp2305
Rp2306
(dp2307
g18
F0.5
sg19
I1062
sg20
g0
(g21
g22
(dp2308
I00
I1028
sI01
I34
stp2309
Rp2310
(dp2311
g19
I1062
sg27
Nsg28
(lp2312
(I00
I1028
tp2313
a(I01
I34
tp2314
asg32
Nsbsg33
I3
sg34
F1063.5
sbs(g8
S'contains(challenge)'
p2315
tp2316
g0
(g14
g2
Ntp2317
Rp2318
(dp2319
g18
F0.5
sg19
I1062
sg20
g0
(g21
g22
(dp2320
I00
I1049
sI01
I13
stp2321
Rp2322
(dp2323
g19
I1062
sg27
Nsg28
(lp2324
(I00
I1049
tp2325
a(I01
I13
tp2326
asg32
Nsbsg33
I3
sg34
F1063.5
sbs(g8
S'contains(release)'
p2327
tp2328
g0
(g14
g2
Ntp2329
Rp2330
(dp2331
g18
F0.5
sg19
I1062
sg20
g0
(g21
g22
(dp2332
I00
I1047
sI01
I15
stp2333
Rp2334
(dp2335
g19
I1062
sg27
Nsg28
(lp2336
(I00
I1047
tp2337
a(I01
I15
tp2338
asg32
Nsbsg33
I3
sg34
F1063.5
sbs(g8
S'contains(london)'
p2339
tp2340
g0
(g14
g2
Ntp2341
Rp2342
(dp2343
g18
F0.5
sg19
I1062
sg20
g0
(g21
g22
(dp2344
I00
I1018
sI01
I44
stp2345
Rp2346
(dp2347
g19
I1062
sg27
Nsg28
(lp2348
(I00
I1018
tp2349
a(I01
I44
tp2350
asg32
Nsbsg33
I3
sg34
F1063.5
sbs(g8
S'contains(support)'
p2351
tp2352
g0
(g14
g2
Ntp2353
Rp2354
(dp2355
g18
F0.5
sg19
I1062
sg20
g0
(g21
g22
(dp2356
I00
I1049
sI01
I13
stp2357
Rp2358
(dp2359
g19
I1062
sg27
Nsg28
(lp2360
(I00
I1049
tp2361
a(I01
I13
tp2362
asg32
Nsbsg33
I3
sg34
F1063.5
sbs(g9
S'contains(attack)'
p2363
tp2364
g0
(g14
g2
Ntp2365
Rp2366
(dp2367
g18
F0.5
sg19
I1062
sg20
g0
(g21
g22
(dp2368
I00
I1051
sI01
I11
stp2369
Rp2370
(dp2371
g19
I1062
sg27
Nsg28
(lp2372
(I00
I1051
tp2373
a(I01
I11
tp2374
asg32
Nsbsg33
I3
sg34
F1063.5
sbs(g9
S'contains(leave)'
p2375
tp2376
g0
(g14
g2
Ntp2377
Rp2378
(dp2379
g18
F0.5
sg19
I1062
sg20
g0
(g21
g22
(dp2380
I00
I1044
sI01
I18
stp2381
Rp2382
(dp2383
g19
I1062
sg27
Nsg28
(lp2384
(I00
I1044
tp2385
a(I01
I18
tp2386
asg32
Nsbsg33
I3
sg34
F1063.5
sbs(g8
S'contains(result)'
p2387
tp2388
g0
(g14
g2
Ntp2389
Rp2390
(dp2391
g18
F0.5
sg19
I1062
sg20
g0
(g21
g22
(dp2392
I00
I1006
sI01
I56
stp2393
Rp2394
(dp2395
g19
I1062
sg27
Nsg28
(lp2396
(I00
I1006
tp2397
a(I01
I56
tp2398
asg32
Nsbsg33
I3
sg34
F1063.5
sbs(g8
S'contains(post)'
p2399
tp2400
g0
(g14
g2
Ntp2401
Rp2402
(dp2403
g18
F0.5
sg19
I1062
sg20
g0
(g21
g22
(dp2404
I00
I1046
sI01
I16
stp2405
Rp2406
(dp2407
g19
I1062
sg27
Nsg28
(lp2408
(I00
I1046
tp2409
a(I01
I16
tp2410
asg32
Nsbsg33
I3
sg34
F1063.5
sbs(g9
S'contains(country)'
p2411
tp2412
g0
(g14
g2
Ntp2413
Rp2414
(dp2415
g18
F0.5
sg19
I1062
sg20
g0
(g21
g22
(dp2416
I00
I1042
sI01
I20
stp2417
Rp2418
(dp2419
g19
I1062
sg27
Nsg28
(lp2420
(I00
I1042
tp2421
a(I01
I20
tp2422
asg32
Nsbsg33
I3
sg34
F1063.5
sbs(g9
S'contains(capital)'
p2423
tp2424
g0
(g14
g2
Ntp2425
Rp2426
(dp2427
g18
F0.5
sg19
I1062
sg20
g0
(g21
g22
(dp2428
I00
I1032
sI01
I30
stp2429
Rp2430
(dp2431
g19
I1062
sg27
Nsg28
(lp2432
(I00
I1032
tp2433
a(I01
I30
tp2434
asg32
Nsbsg33
I3
sg34
F1063.5
sbs(g9
S'contains(go)'
p2435
tp2436
g0
(g14
g2
Ntp2437
Rp2438
(dp2439
g18
F0.5
sg19
I1062
sg20
g0
(g21
g22
(dp2440
I00
I1036
sI01
I26
stp2441
Rp2442
(dp2443
g19
I1062
sg27
Nsg28
(lp2444
(I00
I1036
tp2445
a(I01
I26
tp2446
asg32
Nsbsg33
I3
sg34
F1063.5
sbs(g9
S'contains(price)'
p2447
tp2448
g0
(g14
g2
Ntp2449
Rp2450
(dp2451
g18
F0.5
sg19
I1062
sg20
g0
(g21
g22
(dp2452
I00
I1010
sI01
I52
stp2453
Rp2454
(dp2455
g19
I1062
sg27
Nsg28
(lp2456
(I00
I1010
tp2457
a(I01
I52
tp2458
asg32
Nsbsg33
I3
sg34
F1063.5
sbs(g9
S'contains(steve)'
p2459
tp2460
g0
(g14
g2
Ntp2461
Rp2462
(dp2463
g18
F0.5
sg19
I1062
sg20
g0
(g21
g22
(dp2464
I00
I1050
sI01
I12
stp2465
Rp2466
(dp2467
g19
I1062
sg27
Nsg28
(lp2468
(I00
I1050
tp2469
a(I01
I12
tp2470
asg32
Nsbsg33
I3
sg34
F1063.5
sbs(g9
S'contains(people)'
p2471
tp2472
g0
(g14
g2
Ntp2473
Rp2474
(dp2475
g18
F0.5
sg19
I1062
sg20
g0
(g21
g22
(dp2476
I00
I1014
sI01
I48
stp2477
Rp2478
(dp2479
g19
I1062
sg27
Nsg28
(lp2480
(I00
I1014
tp2481
a(I01
I48
tp2482
asg32
Nsbsg33
I3
sg34
F1063.5
sbs(g9
S'contains(site)'
p2483
tp2484
g0
(g14
g2
Ntp2485
Rp2486
(dp2487
g18
F0.5
sg19
I1062
sg20
g0
(g21
g22
(dp2488
I00
I1049
sI01
I13
stp2489
Rp2490
(dp2491
g19
I1062
sg27
Nsg28
(lp2492
(I00
I1049
tp2493
a(I01
I13
tp2494
asg32
Nsbsg33
I3
sg34
F1063.5
sbs(g8
S'contains(sale)'
p2495
tp2496
g0
(g14
g2
Ntp2497
Rp2498
(dp2499
g18
F0.5
sg19
I1062
sg20
g0
(g21
g22
(dp2500
I00
I1011
sI01
I51
stp2501
Rp2502
(dp2503
g19
I1062
sg27
Nsg28
(lp2504
(I00
I1011
tp2505
a(I01
I51
tp2506
asg32
Nsbsg33
I3
sg34
F1063.5
sbs(g8
S'contains(use)'
p2507
tp2508
g0
(g14
g2
Ntp2509
Rp2510
(dp2511
g18
F0.5
sg19
I1062
sg20
g0
(g21
g22
(dp2512
I00
I1019
sI01
I43
stp2513
Rp2514
(dp2515
g19
I1062
sg27
Nsg28
(lp2516
(I00
I1019
tp2517
a(I01
I43
tp2518
asg32
Nsbsg33
I3
sg34
F1063.5
sbs(g9
S'contains(unit)'
p2519
tp2520
g0
(g14
g2
Ntp2521
Rp2522
(dp2523
g18
F0.5
sg19
I1062
sg20
g0
(g21
g22
(dp2524
I00
I1048
sI01
I14
stp2525
Rp2526
(dp2527
g19
I1062
sg27
Nsg28
(lp2528
(I00
I1048
tp2529
a(I01
I14
tp2530
asg32
Nsbsg33
I3
sg34
F1063.5
sbs(g8
S'contains(seek)'
p2531
tp2532
g0
(g14
g2
Ntp2533
Rp2534
(dp2535
g18
F0.5
sg19
I1062
sg20
g0
(g21
g22
(dp2536
I00
I1046
sI01
I16
stp2537
Rp2538
(dp2539
g19
I1062
sg27
Nsg28
(lp2540
(I00
I1046
tp2541
a(I01
I16
tp2542
asg32
Nsbsg33
I3
sg34
F1063.5
sbs(g9
S'contains(level)'
p2543
tp2544
g0
(g14
g2
Ntp2545
Rp2546
(dp2547
g18
F0.5
sg19
I1062
sg20
g0
(g21
g22
(dp2548
I00
I1033
sI01
I29
stp2549
Rp2550
(dp2551
g19
I1062
sg27
Nsg28
(lp2552
(I00
I1033
tp2553
a(I01
I29
tp2554
asg32
Nsbsg33
I3
sg34
F1063.5
sbs(g8
S'contains(tell)'
p2555
tp2556
g0
(g14
g2
Ntp2557
Rp2558
(dp2559
g18
F0.5
sg19
I1062
sg20
g0
(g21
g22
(dp2560
I00
I1042
sI01
I20
stp2561
Rp2562
(dp2563
g19
I1062
sg27
Nsg28
(lp2564
(I00
I1042
tp2565
a(I01
I20
tp2566
asg32
Nsbsg33
I3
sg34
F1063.5
sbs(g8
S'contains(settlement)'
p2567
tp2568
g0
(g14
g2
Ntp2569
Rp2570
(dp2571
g18
F0.5
sg19
I1062
sg20
g0
(g21
g22
(dp2572
I00
I1036
sI01
I26
stp2573
Rp2574
(dp2575
g19
I1062
sg27
Nsg28
(lp2576
(I00
I1036
tp2577
a(I01
I26
tp2578
asg32
Nsbsg33
I3
sg34
F1063.5
sbs(g9
S'contains(shareholder)'
p2579
tp2580
g0
(g14
g2
Ntp2581
Rp2582
(dp2583
g18
F0.5
sg19
I1062
sg20
g0
(g21
g22
(dp2584
I00
I1037
sI01
I25
stp2585
Rp2586
(dp2587
g19
I1062
sg27
Nsg28
(lp2588
(I00
I1037
tp2589
a(I01
I25
tp2590
asg32
Nsbsg33
I3
sg34
F1063.5
sbs(g9
S'contains(start)'
p2591
tp2592
g0
(g14
g2
Ntp2593
Rp2594
(dp2595
g18
F0.5
sg19
I1062
sg20
g0
(g21
g22
(dp2596
I00
I1025
sI01
I37
stp2597
Rp2598
(dp2599
g19
I1062
sg27
Nsg28
(lp2600
(I00
I1025
tp2601
a(I01
I37
tp2602
asg32
Nsbsg33
I3
sg34
F1063.5
sbs(g9
S'contains(decade)'
p2603
tp2604
g0
(g14
g2
Ntp2605
Rp2606
(dp2607
g18
F0.5
sg19
I1062
sg20
g0
(g21
g22
(dp2608
I00
I1048
sI01
I14
stp2609
Rp2610
(dp2611
g19
I1062
sg27
Nsg28
(lp2612
(I00
I1048
tp2613
a(I01
I14
tp2614
asg32
Nsbsg33
I3
sg34
F1063.5
sbs(g9
S'contains(judge)'
p2615
tp2616
g0
(g14
g2
Ntp2617
Rp2618
(dp2619
g18
F0.5
sg19
I1062
sg20
g0
(g21
g22
(dp2620
I00
I1051
sI01
I11
stp2621
Rp2622
(dp2623
g19
I1062
sg27
Nsg28
(lp2624
(I00
I1051
tp2625
a(I01
I11
tp2626
asg32
Nsbsg33
I3
sg34
F1063.5
sbs(g8
S'contains(add)'
p2627
tp2628
g0
(g14
g2
Ntp2629
Rp2630
(dp2631
g18
F0.5
sg19
I1062
sg20
g0
(g21
g22
(dp2632
I00
I1048
sI01
I14
stp2633
Rp2634
(dp2635
g19
I1062
sg27
Nsg28
(lp2636
(I00
I1048
tp2637
a(I01
I14
tp2638
asg32
Nsbsg33
I3
sg34
F1063.5
sbs(g9
S'contains(publisher)'
p2639
tp2640
g0
(g14
g2
Ntp2641
Rp2642
(dp2643
g18
F0.5
sg19
I1062
sg20
g0
(g21
g22
(dp2644
I00
I1050
sI01
I12
stp2645
Rp2646
(dp2647
g19
I1062
sg27
Nsg28
(lp2648
(I00
I1050
tp2649
a(I01
I12
tp2650
asg32
Nsbsg33
I3
sg34
F1063.5
sbs(g8
S'contains(rate)'
p2651
tp2652
g0
(g14
g2
Ntp2653
Rp2654
(dp2655
g18
F0.5
sg19
I1062
sg20
g0
(g21
g22
(dp2656
I00
I1050
sI01
I12
stp2657
Rp2658
(dp2659
g19
I1062
sg27
Nsg28
(lp2660
(I00
I1050
tp2661
a(I01
I12
tp2662
asg32
Nsbsg33
I3
sg34
F1063.5
sbs(g8
S'contains(government)'
p2663
tp2664
g0
(g14
g2
Ntp2665
Rp2666
(dp2667
g18
F0.5
sg19
I1062
sg20
g0
(g21
g22
(dp2668
I00
I1029
sI01
I33
stp2669
Rp2670
(dp2671
g19
I1062
sg27
Nsg28
(lp2672
(I00
I1029
tp2673
a(I01
I33
tp2674
asg32
Nsbsg33
I3
sg34
F1063.5
sbs(g8
S'contains(matter)'
p2675
tp2676
g0
(g14
g2
Ntp2677
Rp2678
(dp2679
g18
F0.5
sg19
I1062
sg20
g0
(g21
g22
(dp2680
I00
I1046
sI01
I16
stp2681
Rp2682
(dp2683
g19
I1062
sg27
Nsg28
(lp2684
(I00
I1046
tp2685
a(I01
I16
tp2686
asg32
Nsbsg33
I3
sg34
F1063.5
sbs(g8
S'contains(charge)'
p2687
tp2688
g0
(g14
g2
Ntp2689
Rp2690
(dp2691
g18
F0.5
sg19
I1062
sg20
g0
(g21
g22
(dp2692
I00
I1024
sI01
I38
stp2693
Rp2694
(dp2695
g19
I1062
sg27
Nsg28
(lp2696
(I00
I1024
tp2697
a(I01
I38
tp2698
asg32
Nsbsg33
I3
sg34
F1063.5
sbs(g9
S'contains(map)'
p2699
tp2700
g0
(g14
g2
Ntp2701
Rp2702
(dp2703
g18
F0.5
sg19
I1062
sg20
g0
(g21
g22
(dp2704
I00
I1044
sI01
I18
stp2705
Rp2706
(dp2707
g19
I1062
sg27
Nsg28
(lp2708
(I00
I1044
tp2709
a(I01
I18
tp2710
asg32
Nsbsg33
I3
sg34
F1063.5
sbs(g8
S"contains(company's)"
p2711
tp2712
g0
(g14
g2
Ntp2713
Rp2714
(dp2715
g18
F0.5
sg19
I1062
sg20
g0
(g21
g22
(dp2716
I00
I1040
sI01
I22
stp2717
Rp2718
(dp2719
g19
I1062
sg27
Nsg28
(lp2720
(I00
I1040
tp2721
a(I01
I22
tp2722
asg32
Nsbsg33
I3
sg34
F1063.5
sbs(g9
S'contains(mark)'
p2723
tp2724
g0
(g14
g2
Ntp2725
Rp2726
(dp2727
g18
F0.5
sg19
I1062
sg20
g0
(g21
g22
(dp2728
I00
I1044
sI01
I18
stp2729
Rp2730
(dp2731
g19
I1062
sg27
Nsg28
(lp2732
(I00
I1044
tp2733
a(I01
I18
tp2734
asg32
Nsbsg33
I3
sg34
F1063.5
sbs(g8
S'contains(provide)'
p2735
tp2736
g0
(g14
g2
Ntp2737
Rp2738
(dp2739
g18
F0.5
sg19
I1062
sg20
g0
(g21
g22
(dp2740
I00
I1055
sI01
I7
stp2741
Rp2742
(dp2743
g19
I1062
sg27
Nsg28
(lp2744
(I00
I1055
tp2745
a(I01
I7
tp2746
asg32
Nsbsg33
I3
sg34
F1063.5
sbs(g8
S'contains(world)'
p2747
tp2748
g0
(g14
g2
Ntp2749
Rp2750
(dp2751
g18
F0.5
sg19
I1062
sg20
g0
(g21
g22
(dp2752
I00
I1046
sI01
I16
stp2753
Rp2754
(dp2755
g19
I1062
sg27
Nsg28
(lp2756
(I00
I1046
tp2757
a(I01
I16
tp2758
asg32
Nsbsg33
I3
sg34
F1063.5
sbs(g9
S'contains(ipad)'
p2759
tp2760
g0
(g14
g2
Ntp2761
Rp2762
(dp2763
g18
F0.5
sg19
I1062
sg20
g0
(g21
g22
(dp2764
I00
I1037
sI01
I25
stp2765
Rp2766
(dp2767
g19
I1062
sg27
Nsg28
(lp2768
(I00
I1037
tp2769
a(I01
I25
tp2770
asg32
Nsbsg33
I3
sg34
F1063.5
sbs(g8
S'contains(bring)'
p2771
tp2772
g0
(g14
g2
Ntp2773
Rp2774
(dp2775
g18
F0.5
sg19
I1062
sg20
g0
(g21
g22
(dp2776
I00
I1050
sI01
I12
stp2777
Rp2778
(dp2779
g19
I1062
sg27
Nsg28
(lp2780
(I00
I1050
tp2781
a(I01
I12
tp2782
asg32
Nsbsg33
I3
sg34
F1063.5
sbs(g9
S'contains(competition)'
p2783
tp2784
g0
(g14
g2
Ntp2785
Rp2786
(dp2787
g18
F0.5
sg19
I1062
sg20
g0
(g21
g22
(dp2788
I00
I1045
sI01
I17
stp2789
Rp2790
(dp2791
g19
I1062
sg27
Nsg28
(lp2792
(I00
I1045
tp2793
a(I01
I17
tp2794
asg32
Nsbsg33
I3
sg34
F1063.5
sbs(g9
S'contains(money)'
p2795
tp2796
g0
(g14
g2
Ntp2797
Rp2798
(dp2799
g18
F0.5
sg19
I1062
sg20
g0
(g21
g22
(dp2800
I00
I1044
sI01
I18
stp2801
Rp2802
(dp2803
g19
I1062
sg27
Nsg28
(lp2804
(I00
I1044
tp2805
a(I01
I18
tp2806
asg32
Nsbsg33
I3
sg34
F1063.5
sbs(g9
S'contains(programme)'
p2807
tp2808
g0
(g14
g2
Ntp2809
Rp2810
(dp2811
g18
F0.5
sg19
I1062
sg20
g0
(g21
g22
(dp2812
I00
I1048
sI01
I14
stp2813
Rp2814
(dp2815
g19
I1062
sg27
Nsg28
(lp2816
(I00
I1048
tp2817
a(I01
I14
tp2818
asg32
Nsbsg33
I3
sg34
F1063.5
sbs(g9
S'contains(advertising)'
p2819
tp2820
g0
(g14
g2
Ntp2821
Rp2822
(dp2823
g18
F0.5
sg19
I1062
sg20
g0
(g21
g22
(dp2824
I00
I1037
sI01
I25
stp2825
Rp2826
(dp2827
g19
I1062
sg27
Nsg28
(lp2828
(I00
I1037
tp2829
a(I01
I25
tp2830
asg32
Nsbsg33
I3
sg34
F1063.5
sbs(g8
S'contains(emerge)'
p2831
tp2832
g0
(g14
g2
Ntp2833
Rp2834
(dp2835
g18
F0.5
sg19
I1062
sg20
g0
(g21
g22
(dp2836
I00
I1044
sI01
I18
stp2837
Rp2838
(dp2839
g19
I1062
sg27
Nsg28
(lp2840
(I00
I1044
tp2841
a(I01
I18
tp2842
asg32
Nsbsg33
I3
sg34
F1063.5
sbs(g9
S'contains(get)'
p2843
tp2844
g0
(g14
g2
Ntp2845
Rp2846
(dp2847
g18
F0.5
sg19
I1062
sg20
g0
(g21
g22
(dp2848
I00
I1046
sI01
I16
stp2849
Rp2850
(dp2851
g19
I1062
sg27
Nsg28
(lp2852
(I00
I1046
tp2853
a(I01
I16
tp2854
asg32
Nsbsg33
I3
sg34
F1063.5
sbs(g9
S'contains(create)'
p2855
tp2856
g0
(g14
g2
Ntp2857
Rp2858
(dp2859
g18
F0.5
sg19
I1062
sg20
g0
(g21
g22
(dp2860
I00
I1042
sI01
I20
stp2861
Rp2862
(dp2863
g19
I1062
sg27
Nsg28
(lp2864
(I00
I1042
tp2865
a(I01
I20
tp2866
asg32
Nsbsg33
I3
sg34
F1063.5
sbs(g8
S'contains(tv)'
p2867
tp2868
g0
(g14
g2
Ntp2869
Rp2870
(dp2871
g18
F0.5
sg19
I1062
sg20
g0
(g21
g22
(dp2872
I00
I1048
sI01
I14
stp2873
Rp2874
(dp2875
g19
I1062
sg27
Nsg28
(lp2876
(I00
I1048
tp2877
a(I01
I14
tp2878
asg32
Nsbsg33
I3
sg34
F1063.5
sbs(g8
S'contains(wednesday)'
p2879
tp2880
g0
(g14
g2
Ntp2881
Rp2882
(dp2883
g18
F0.5
sg19
I1062
sg20
g0
(g21
g22
(dp2884
I00
I1045
sI01
I17
stp2885
Rp2886
(dp2887
g19
I1062
sg27
Nsg28
(lp2888
(I00
I1045
tp2889
a(I01
I17
tp2890
asg32
Nsbsg33
I3
sg34
F1063.5
sbs(g8
S'contains(allow)'
p2891
tp2892
g0
(g14
g2
Ntp2893
Rp2894
(dp2895
g18
F0.5
sg19
I1062
sg20
g0
(g21
g22
(dp2896
I00
I1052
sI01
I10
stp2897
Rp2898
(dp2899
g19
I1062
sg27
Nsg28
(lp2900
(I00
I1052
tp2901
a(I01
I10
tp2902
asg32
Nsbsg33
I3
sg34
F1063.5
sbs(g9
S'contains(london)'
p2903
tp2904
g0
(g14
g2
Ntp2905
Rp2906
(dp2907
g18
F0.5
sg19
I1062
sg20
g0
(g21
g22
(dp2908
I00
I1041
sI01
I21
stp2909
Rp2910
(dp2911
g19
I1062
sg27
Nsg28
(lp2912
(I00
I1041
tp2913
a(I01
I21
tp2914
asg32
Nsbsg33
I3
sg34
F1063.5
sbs(g9
S'contains(support)'
p2915
tp2916
g0
(g14
g2
Ntp2917
Rp2918
(dp2919
g18
F0.5
sg19
I1062
sg20
g0
(g21
g22
(dp2920
I00
I1047
sI01
I15
stp2921
Rp2922
(dp2923
g19
I1062
sg27
Nsg28
(lp2924
(I00
I1047
tp2925
a(I01
I15
tp2926
asg32
Nsbsg33
I3
sg34
F1063.5
sbs(g9
S'contains(operating)'
p2927
tp2928
g0
(g14
g2
Ntp2929
Rp2930
(dp2931
g18
F0.5
sg19
I1062
sg20
g0
(g21
g22
(dp2932
I00
I1045
sI01
I17
stp2933
Rp2934
(dp2935
g19
I1062
sg27
Nsg28
(lp2936
(I00
I1045
tp2937
a(I01
I17
tp2938
asg32
Nsbsg33
I3
sg34
F1063.5
sbs(g8
S'contains(asset)'
p2939
tp2940
g0
(g14
g2
Ntp2941
Rp2942
(dp2943
g18
F0.5
sg19
I1062
sg20
g0
(g21
g22
(dp2944
I00
I1047
sI01
I15
stp2945
Rp2946
(dp2947
g19
I1062
sg27
Nsg28
(lp2948
(I00
I1047
tp2949
a(I01
I15
tp2950
asg32
Nsbsg33
I3
sg34
F1063.5
sbs(g8
S'contains(line)'
p2951
tp2952
g0
(g14
g2
Ntp2953
Rp2954
(dp2955
g18
F0.5
sg19
I1062
sg20
g0
(g21
g22
(dp2956
I00
I1053
sI01
I9
stp2957
Rp2958
(dp2959
g19
I1062
sg27
Nsg28
(lp2960
(I00
I1053
tp2961
a(I01
I9
tp2962
asg32
Nsbsg33
I3
sg34
F1063.5
sbs(g9
S'contains(medium)'
p2963
tp2964
g0
(g14
g2
Ntp2965
Rp2966
(dp2967
g18
F0.5
sg19
I1062
sg20
g0
(g21
g22
(dp2968
I00
I1043
sI01
I19
stp2969
Rp2970
(dp2971
g19
I1062
sg27
Nsg28
(lp2972
(I00
I1043
tp2973
a(I01
I19
tp2974
asg32
Nsbsg33
I3
sg34
F1063.5
sbs(g9
S'contains(close)'
p2975
tp2976
g0
(g14
g2
Ntp2977
Rp2978
(dp2979
g18
F0.5
sg19
I1062
sg20
g0
(g21
g22
(dp2980
I00
I1035
sI01
I27
stp2981
Rp2982
(dp2983
g19
I1062
sg27
Nsg28
(lp2984
(I00
I1035
tp2985
a(I01
I27
tp2986
asg32
Nsbsg33
I3
sg34
F1063.5
sbs(g8
S'contains(price)'
p2987
tp2988
g0
(g14
g2
Ntp2989
Rp2990
(dp2991
g18
F0.5
sg19
I1062
sg20
g0
(g21
g22
(dp2992
I00
I1002
sI01
I60
stp2993
Rp2994
(dp2995
g19
I1062
sg27
Nsg28
(lp2996
(I00
I1002
tp2997
a(I01
I60
tp2998
asg32
Nsbsg33
I3
sg34
F1063.5
sbs(g8
S'contains(decline)'
p2999
tp3000
g0
(g14
g2
Ntp3001
Rp3002
(dp3003
g18
F0.5
sg19
I1062
sg20
g0
(g21
g22
(dp3004
I00
I1016
sI01
I46
stp3005
Rp3006
(dp3007
g19
I1062
sg27
Nsg28
(lp3008
(I00
I1016
tp3009
a(I01
I46
tp3010
asg32
Nsbsg33
I3
sg34
F1063.5
sbs(g9
S'contains(cost)'
p3011
tp3012
g0
(g14
g2
Ntp3013
Rp3014
(dp3015
g18
F0.5
sg19
I1062
sg20
g0
(g21
g22
(dp3016
I00
I1038
sI01
I24
stp3017
Rp3018
(dp3019
g19
I1062
sg27
Nsg28
(lp3020
(I00
I1038
tp3021
a(I01
I24
tp3022
asg32
Nsbsg33
I3
sg34
F1063.5
sbs(g9
S'contains(profit)'
p3023
tp3024
g0
(g14
g2
Ntp3025
Rp3026
(dp3027
g18
F0.5
sg19
I1062
sg20
g0
(g21
g22
(dp3028
I00
I1020
sI01
I42
stp3029
Rp3030
(dp3031
g19
I1062
sg27
Nsg28
(lp3032
(I00
I1020
tp3033
a(I01
I42
tp3034
asg32
Nsbsg33
I3
sg34
F1063.5
sbs(g9
S'contains(damage)'
p3035
tp3036
g0
(g14
g2
Ntp3037
Rp3038
(dp3039
g18
F0.5
sg19
I1062
sg20
g0
(g21
g22
(dp3040
I00
I1055
sI01
I7
stp3041
Rp3042
(dp3043
g19
I1062
sg27
Nsg28
(lp3044
(I00
I1055
tp3045
a(I01
I7
tp3046
asg32
Nsbsg33
I3
sg34
F1063.5
sbs(g9
S'contains(force)'
p3047
tp3048
g0
(g14
g2
Ntp3049
Rp3050
(dp3051
g18
F0.5
sg19
I1062
sg20
g0
(g21
g22
(dp3052
I00
I1052
sI01
I10
stp3053
Rp3054
(dp3055
g19
I1062
sg27
Nsg28
(lp3056
(I00
I1052
tp3057
a(I01
I10
tp3058
asg32
Nsbsg33
I3
sg34
F1063.5
sbs(g8
S'contains(decade)'
p3059
tp3060
g0
(g14
g2
Ntp3061
Rp3062
(dp3063
g18
F0.5
sg19
I1062
sg20
g0
(g21
g22
(dp3064
I00
I1051
sI01
I11
stp3065
Rp3066
(dp3067
g19
I1062
sg27
Nsg28
(lp3068
(I00
I1051
tp3069
a(I01
I11
tp3070
asg32
Nsbsg33
I3
sg34
F1063.5
sbs(g8
S'contains(merrill)'
p3071
tp3072
g0
(g14
g2
Ntp3073
Rp3074
(dp3075
g18
F0.5
sg19
I1062
sg20
g0
(g21
g22
(dp3076
I00
I1050
sI01
I12
stp3077
Rp3078
(dp3079
g19
I1062
sg27
Nsg28
(lp3080
(I00
I1050
tp3081
a(I01
I12
tp3082
asg32
Nsbsg33
I3
sg34
F1063.5
sbs(g9
S'contains(record)'
p3083
tp3084
g0
(g14
g2
Ntp3085
Rp3086
(dp3087
g18
F0.5
sg19
I1062
sg20
g0
(g21
g22
(dp3088
I00
I1031
sI01
I31
stp3089
Rp3090
(dp3091
g19
I1062
sg27
Nsg28
(lp3092
(I00
I1031
tp3093
a(I01
I31
tp3094
asg32
Nsbsg33
I3
sg34
F1063.5
sbs(g9
S'contains(hold)'
p3095
tp3096
g0
(g14
g2
Ntp3097
Rp3098
(dp3099
g18
F0.5
sg19
I1062
sg20
g0
(g21
g22
(dp3100
I00
I1039
sI01
I23
stp3101
Rp3102
(dp3103
g19
I1062
sg27
Nsg28
(lp3104
(I00
I1039
tp3105
a(I01
I23
tp3106
asg32
Nsbsg33
I3
sg34
F1063.5
sbs(g9
S"contains(company's)"
p3107
tp3108
g0
(g14
g2
Ntp3109
Rp3110
(dp3111
g18
F0.5
sg19
I1062
sg20
g0
(g21
g22
(dp3112
I00
I1044
sI01
I18
stp3113
Rp3114
(dp3115
g19
I1062
sg27
Nsg28
(lp3116
(I00
I1044
tp3117
a(I01
I18
tp3118
asg32
Nsbsg33
I3
sg34
F1063.5
sbs(g9
S'contains(accuse)'
p3119
tp3120
g0
(g14
g2
Ntp3121
Rp3122
(dp3123
g18
F0.5
sg19
I1062
sg20
g0
(g21
g22
(dp3124
I00
I1052
sI01
I10
stp3125
Rp3126
(dp3127
g19
I1062
sg27
Nsg28
(lp3128
(I00
I1052
tp3129
a(I01
I10
tp3130
asg32
Nsbsg33
I3
sg34
F1063.5
sbs(g8
S'contains(believe)'
p3131
tp3132
g0
(g14
g2
Ntp3133
Rp3134
(dp3135
g18
F0.5
sg19
I1062
sg20
g0
(g21
g22
(dp3136
I00
I1051
sI01
I11
stp3137
Rp3138
(dp3139
g19
I1062
sg27
Nsg28
(lp3140
(I00
I1051
tp3141
a(I01
I11
tp3142
asg32
Nsbsg33
I3
sg34
F1063.5
sbs(g8
S'contains(ipad)'
p3143
tp3144
g0
(g14
g2
Ntp3145
Rp3146
(dp3147
g18
F0.5
sg19
I1062
sg20
g0
(g21
g22
(dp3148
I00
I1039
sI01
I23
stp3149
Rp3150
(dp3151
g19
I1062
sg27
Nsg28
(lp3152
(I00
I1039
tp3153
a(I01
I23
tp3154
asg32
Nsbsg33
I3
sg34
F1063.5
sbs(g9
S'contains(app)'
p3155
tp3156
g0
(g14
g2
Ntp3157
Rp3158
(dp3159
g18
F0.5
sg19
I1062
sg20
g0
(g21
g22
(dp3160
I00
I1036
sI01
I26
stp3161
Rp3162
(dp3163
g19
I1062
sg27
Nsg28
(lp3164
(I00
I1036
tp3165
a(I01
I26
tp3166
asg32
Nsbsg33
I3
sg34
F1063.5
sbs(g8
S'contains(relate)'
p3167
tp3168
g0
(g14
g2
Ntp3169
Rp3170
(dp3171
g18
F0.5
sg19
I1062
sg20
g0
(g21
g22
(dp3172
I00
I1048
sI01
I14
stp3173
Rp3174
(dp3175
g19
I1062
sg27
Nsg28
(lp3176
(I00
I1048
tp3177
a(I01
I14
tp3178
asg32
Nsbsg33
I3
sg34
F1063.5
sbs(g8
S'contains(name)'
p3179
tp3180
g0
(g14
g2
Ntp3181
Rp3182
(dp3183
g18
F0.5
sg19
I1062
sg20
g0
(g21
g22
(dp3184
I00
I1049
sI01
I13
stp3185
Rp3186
(dp3187
g19
I1062
sg27
Nsg28
(lp3188
(I00
I1049
tp3189
a(I01
I13
tp3190
asg32
Nsbsg33
I3
sg34
F1063.5
sbs(g9
S'contains(lawsuit)'
p3191
tp3192
g0
(g14
g2
Ntp3193
Rp3194
(dp3195
g18
F0.5
sg19
I1062
sg20
g0
(g21
g22
(dp3196
I00
I1051
sI01
I11
stp3197
Rp3198
(dp3199
g19
I1062
sg27
Nsg28
(lp3200
(I00
I1051
tp3201
a(I01
I11
tp3202
asg32
Nsbsg33
I3
sg34
F1063.5
sbs(g8
S'contains(practice)'
p3203
tp3204
g0
(g14
g2
Ntp3205
Rp3206
(dp3207
g18
F0.5
sg19
I1062
sg20
g0
(g21
g22
(dp3208
I00
I1046
sI01
I16
stp3209
Rp3210
(dp3211
g19
I1062
sg27
Nsg28
(lp3212
(I00
I1046
tp3213
a(I01
I16
tp3214
asg32
Nsbsg33
I3
sg34
F1063.5
sbs(g8
S'contains(search)'
p3215
tp3216
g0
(g14
g2
Ntp3217
Rp3218
(dp3219
g18
F0.5
sg19
I1062
sg20
g0
(g21
g22
(dp3220
I00
I1020
sI01
I42
stp3221
Rp3222
(dp3223
g19
I1062
sg27
Nsg28
(lp3224
(I00
I1020
tp3225
a(I01
I42
tp3226
asg32
Nsbsg33
I3
sg34
F1063.5
sbs(g8
S'contains(benchmark)'
p3227
tp3228
g0
(g14
g2
Ntp3229
Rp3230
(dp3231
g18
F0.5
sg19
I1062
sg20
g0
(g21
g22
(dp3232
I00
I1050
sI01
I12
stp3233
Rp3234
(dp3235
g19
I1062
sg27
Nsg28
(lp3236
(I00
I1050
tp3237
a(I01
I12
tp3238
asg32
Nsbsg33
I3
sg34
F1063.5
sbs(g8
S'contains(work)'
p3239
tp3240
g0
(g14
g2
Ntp3241
Rp3242
(dp3243
g18
F0.5
sg19
I1062
sg20
g0
(g21
g22
(dp3244
I00
I1037
sI01
I25
stp3245
Rp3246
(dp3247
g19
I1062
sg27
Nsg28
(lp3248
(I00
I1037
tp3249
a(I01
I25
tp3250
asg32
Nsbsg33
I3
sg34
F1063.5
sbs(g8
S'contains(get)'
p3251
tp3252
g0
(g14
g2
Ntp3253
Rp3254
(dp3255
g18
F0.5
sg19
I1062
sg20
g0
(g21
g22
(dp3256
I00
I1045
sI01
I17
stp3257
Rp3258
(dp3259
g19
I1062
sg27
Nsg28
(lp3260
(I00
I1045
tp3261
a(I01
I17
tp3262
asg32
Nsbsg33
I3
sg34
F1063.5
sbs(g9
S'contains(case)'
p3263
tp3264
g0
(g14
g2
Ntp3265
Rp3266
(dp3267
g18
F0.5
sg19
I1062
sg20
g0
(g21
g22
(dp3268
I00
I1043
sI01
I19
stp3269
Rp3270
(dp3271
g19
I1062
sg27
Nsg28
(lp3272
(I00
I1043
tp3273
a(I01
I19
tp3274
asg32
Nsbsg33
I3
sg34
F1063.5
sbs(g8
S'contains(banker)'
p3275
tp3276
g0
(g14
g2
Ntp3277
Rp3278
(dp3279
g18
F0.5
sg19
I1062
sg20
g0
(g21
g22
(dp3280
I00
I1046
sI01
I16
stp3281
Rp3282
(dp3283
g19
I1062
sg27
Nsg28
(lp3284
(I00
I1046
tp3285
a(I01
I16
tp3286
asg32
Nsbsg33
I3
sg34
F1063.5
sbs(g8
S'contains(buy)'
p3287
tp3288
g0
(g14
g2
Ntp3289
Rp3290
(dp3291
g18
F0.5
sg19
I1062
sg20
g0
(g21
g22
(dp3292
I00
I1037
sI01
I25
stp3293
Rp3294
(dp3295
g19
I1062
sg27
Nsg28
(lp3296
(I00
I1037
tp3297
a(I01
I25
tp3298
asg32
Nsbsg33
I3
sg34
F1063.5
sbs(g9
S'contains(wednesday)'
p3299
tp3300
g0
(g14
g2
Ntp3301
Rp3302
(dp3303
g18
F0.5
sg19
I1062
sg20
g0
(g21
g22
(dp3304
I00
I1053
sI01
I9
stp3305
Rp3306
(dp3307
g19
I1062
sg27
Nsg28
(lp3308
(I00
I1053
tp3309
a(I01
I9
tp3310
asg32
Nsbsg33
I3
sg34
F1063.5
sbs(g9
S'contains(whale)'
p3311
tp3312
g0
(g14
g2
Ntp3313
Rp3314
(dp3315
g18
F0.5
sg19
I1062
sg20
g0
(g21
g22
(dp3316
I00
I1052
sI01
I10
stp3317
Rp3318
(dp3319
g19
I1062
sg27
Nsg28
(lp3320
(I00
I1052
tp3321
a(I01
I10
tp3322
asg32
Nsbsg33
I3
sg34
F1063.5
sbs(g9
S'contains(push)'
p3323
tp3324
g0
(g14
g2
Ntp3325
Rp3326
(dp3327
g18
F0.5
sg19
I1062
sg20
g0
(g21
g22
(dp3328
I00
I1041
sI01
I21
stp3329
Rp3330
(dp3331
g19
I1062
sg27
Nsg28
(lp3332
(I00
I1041
tp3333
a(I01
I21
tp3334
asg32
Nsbsg33
I3
sg34
F1063.5
sbs(g9
S'contains(move)'
p3335
tp3336
g0
(g14
g2
Ntp3337
Rp3338
(dp3339
g18
F0.5
sg19
I1062
sg20
g0
(g21
g22
(dp3340
I00
I1018
sI01
I44
stp3341
Rp3342
(dp3343
g19
I1062
sg27
Nsg28
(lp3344
(I00
I1018
tp3345
a(I01
I44
tp3346
asg32
Nsbsg33
I3
sg34
F1063.5
sbs(g9
S'contains(trader)'
p3347
tp3348
g0
(g14
g2
Ntp3349
Rp3350
(dp3351
g18
F0.5
sg19
I1062
sg20
g0
(g21
g22
(dp3352
I00
I1053
sI01
I9
stp3353
Rp3354
(dp3355
g19
I1062
sg27
Nsg28
(lp3356
(I00
I1053
tp3357
a(I01
I9
tp3358
asg32
Nsbsg33
I3
sg34
F1063.5
sbs(g9
S'contains(action)'
p3359
tp3360
g0
(g14
g2
Ntp3361
Rp3362
(dp3363
g18
F0.5
sg19
I1062
sg20
g0
(g21
g22
(dp3364
I00
I1051
sI01
I11
stp3365
Rp3366
(dp3367
g19
I1062
sg27
Nsg28
(lp3368
(I00
I1051
tp3369
a(I01
I11
tp3370
asg32
Nsbsg33
I3
sg34
F1063.5
sbs(g9
S'contains(pressure)'
p3371
tp3372
g0
(g14
g2
Ntp3373
Rp3374
(dp3375
g18
F0.5
sg19
I1062
sg20
g0
(g21
g22
(dp3376
I00
I1050
sI01
I12
stp3377
Rp3378
(dp3379
g19
I1062
sg27
Nsg28
(lp3380
(I00
I1050
tp3381
a(I01
I12
tp3382
asg32
Nsbsg33
I3
sg34
F1063.5
sbs(g8
S'contains(step)'
p3383
tp3384
g0
(g14
g2
Ntp3385
Rp3386
(dp3387
g18
F0.5
sg19
I1062
sg20
g0
(g21
g22
(dp3388
I00
I1051
sI01
I11
stp3389
Rp3390
(dp3391
g19
I1062
sg27
Nsg28
(lp3392
(I00
I1051
tp3393
a(I01
I11
tp3394
asg32
Nsbsg33
I3
sg34
F1063.5
sbs(g9
S'contains(write)'
p3395
tp3396
g0
(g14
g2
Ntp3397
Rp3398
(dp3399
g18
F0.5
sg19
I1062
sg20
g0
(g21
g22
(dp3400
I00
I1044
sI01
I18
stp3401
Rp3402
(dp3403
g19
I1062
sg27
Nsg28
(lp3404
(I00
I1044
tp3405
a(I01
I18
tp3406
asg32
Nsbsg33
I3
sg34
F1063.5
sbs(g8
S'contains(dividend)'
p3407
tp3408
g0
(g14
g2
Ntp3409
Rp3410
(dp3411
g18
F0.5
sg19
I1062
sg20
g0
(g21
g22
(dp3412
I00
I1047
sI01
I15
stp3413
Rp3414
(dp3415
g19
I1062
sg27
Nsg28
(lp3416
(I00
I1047
tp3417
a(I01
I15
tp3418
asg32
Nsbsg33
I3
sg34
F1063.5
sbs(g9
S'contains(take)'
p3419
tp3420
g0
(g14
g2
Ntp3421
Rp3422
(dp3423
g18
F0.5
sg19
I1062
sg20
g0
(g21
g22
(dp3424
I00
I1008
sI01
I54
stp3425
Rp3426
(dp3427
g19
I1062
sg27
Nsg28
(lp3428
(I00
I1008
tp3429
a(I01
I54
tp3430
asg32
Nsbsg33
I3
sg34
F1063.5
sbs(g8
S'contains(turn)'
p3431
tp3432
g0
(g14
g2
Ntp3433
Rp3434
(dp3435
g18
F0.5
sg19
I1062
sg20
g0
(g21
g22
(dp3436
I00
I1047
sI01
I15
stp3437
Rp3438
(dp3439
g19
I1062
sg27
Nsg28
(lp3440
(I00
I1047
tp3441
a(I01
I15
tp3442
asg32
Nsbsg33
I3
sg34
F1063.5
sbs(g9
S'contains(content)'
p3443
tp3444
g0
(g14
g2
Ntp3445
Rp3446
(dp3447
g18
F0.5
sg19
I1062
sg20
g0
(g21
g22
(dp3448
I00
I1043
sI01
I19
stp3449
Rp3450
(dp3451
g19
I1062
sg27
Nsg28
(lp3452
(I00
I1043
tp3453
a(I01
I19
tp3454
asg32
Nsbsg33
I3
sg34
F1063.5
sbs(g9
S'contains(strategy)'
p3455
tp3456
g0
(g14
g2
Ntp3457
Rp3458
(dp3459
g18
F0.5
sg19
I1062
sg20
g0
(g21
g22
(dp3460
I00
I1049
sI01
I13
stp3461
Rp3462
(dp3463
g19
I1062
sg27
Nsg28
(lp3464
(I00
I1049
tp3465
a(I01
I13
tp3466
asg32
Nsbsg33
I3
sg34
F1063.5
sbs(g8
S'contains(look)'
p3467
tp3468
g0
(g14
g2
Ntp3469
Rp3470
(dp3471
g18
F0.5
sg19
I1062
sg20
g0
(g21
g22
(dp3472
I00
I1043
sI01
I19
stp3473
Rp3474
(dp3475
g19
I1062
sg27
Nsg28
(lp3476
(I00
I1043
tp3477
a(I01
I19
tp3478
asg32
Nsbsg33
I3
sg34
F1063.5
sbs(g9
S'contains(accord)'
p3479
tp3480
g0
(g14
g2
Ntp3481
Rp3482
(dp3483
g18
F0.5
sg19
I1062
sg20
g0
(g21
g22
(dp3484
I00
I1033
sI01
I29
stp3485
Rp3486
(dp3487
g19
I1062
sg27
Nsg28
(lp3488
(I00
I1033
tp3489
a(I01
I29
tp3490
asg32
Nsbsg33
I3
sg34
F1063.5
sbs(g9
S'contains(co)'
p3491
tp3492
g0
(g14
g2
Ntp3493
Rp3494
(dp3495
g18
F0.5
sg19
I1062
sg20
g0
(g21
g22
(dp3496
I00
I1040
sI01
I22
stp3497
Rp3498
(dp3499
g19
I1062
sg27
Nsg28
(lp3500
(I00
I1040
tp3501
a(I01
I22
tp3502
asg32
Nsbsg33
I3
sg34
F1063.5
sbs(g8
S'contains(dimon)'
p3503
tp3504
g0
(g14
g2
Ntp3505
Rp3506
(dp3507
g18
F0.5
sg19
I1062
sg20
g0
(g21
g22
(dp3508
I00
I1044
sI01
I18
stp3509
Rp3510
(dp3511
g19
I1062
sg27
Nsg28
(lp3512
(I00
I1044
tp3513
a(I01
I18
tp3514
asg32
Nsbsg33
I3
sg34
F1063.5
sbs(g8
S'contains(version)'
p3515
tp3516
g0
(g14
g2
Ntp3517
Rp3518
(dp3519
g18
F0.5
sg19
I1062
sg20
g0
(g21
g22
(dp3520
I00
I1051
sI01
I11
stp3521
Rp3522
(dp3523
g19
I1062
sg27
Nsg28
(lp3524
(I00
I1051
tp3525
a(I01
I11
tp3526
asg32
Nsbsg33
I3
sg34
F1063.5
sbs(g8
S'contains(damage)'
p3527
tp3528
g0
(g14
g2
Ntp3529
Rp3530
(dp3531
g18
F0.5
sg19
I1062
sg20
g0
(g21
g22
(dp3532
I00
I1045
sI01
I17
stp3533
Rp3534
(dp3535
g19
I1062
sg27
Nsg28
(lp3536
(I00
I1045
tp3537
a(I01
I17
tp3538
asg32
Nsbsg33
I3
sg34
F1063.5
sbs(g9
S'contains(october)'
p3539
tp3540
g0
(g14
g2
Ntp3541
Rp3542
(dp3543
g18
F0.5
sg19
I1062
sg20
g0
(g21
g22
(dp3544
I00
I1045
sI01
I17
stp3545
Rp3546
(dp3547
g19
I1062
sg27
Nsg28
(lp3548
(I00
I1045
tp3549
a(I01
I17
tp3550
asg32
Nsbsg33
I3
sg34
F1063.5
sbs(g9
S'contains(uk)'
p3551
tp3552
g0
(g14
g2
Ntp3553
Rp3554
(dp3555
g18
F0.5
sg19
I1062
sg20
g0
(g21
g22
(dp3556
I00
I1044
sI01
I18
stp3557
Rp3558
(dp3559
g19
I1062
sg27
Nsg28
(lp3560
(I00
I1044
tp3561
a(I01
I18
tp3562
asg32
Nsbsg33
I3
sg34
F1063.5
sbs(g8
S'contains(force)'
p3563
tp3564
g0
(g14
g2
Ntp3565
Rp3566
(dp3567
g18
F0.5
sg19
I1062
sg20
g0
(g21
g22
(dp3568
I00
I1039
sI01
I23
stp3569
Rp3570
(dp3571
g19
I1062
sg27
Nsg28
(lp3572
(I00
I1039
tp3573
a(I01
I23
tp3574
asg32
Nsbsg33
I3
sg34
F1063.5
sbs(g9
S'contains(tax)'
p3575
tp3576
g0
(g14
g2
Ntp3577
Rp3578
(dp3579
g18
F0.5
sg19
I1062
sg20
g0
(g21
g22
(dp3580
I00
I1042
sI01
I20
stp3581
Rp3582
(dp3583
g19
I1062
sg27
Nsg28
(lp3584
(I00
I1042
tp3585
a(I01
I20
tp3586
asg32
Nsbsg33
I3
sg34
F1063.5
sbs(g8
S'contains(back)'
p3587
tp3588
g0
(g14
g2
Ntp3589
Rp3590
(dp3591
g18
F0.5
sg19
I1062
sg20
g0
(g21
g22
(dp3592
I00
I1039
sI01
I23
stp3593
Rp3594
(dp3595
g19
I1062
sg27
Nsg28
(lp3596
(I00
I1039
tp3597
a(I01
I23
tp3598
asg32
Nsbsg33
I3
sg34
F1063.5
sbs(g8
S'contains(pay)'
p3599
tp3600
g0
(g14
g2
Ntp3601
Rp3602
(dp3603
g18
F0.5
sg19
I1062
sg20
g0
(g21
g22
(dp3604
I00
I1006
sI01
I56
stp3605
Rp3606
(dp3607
g19
I1062
sg27
Nsg28
(lp3608
(I00
I1006
tp3609
a(I01
I56
tp3610
asg32
Nsbsg33
I3
sg34
F1063.5
sbs(g8
S'contains(attempt)'
p3611
tp3612
g0
(g14
g2
Ntp3613
Rp3614
(dp3615
g18
F0.5
sg19
I1062
sg20
g0
(g21
g22
(dp3616
I00
I1046
sI01
I16
stp3617
Rp3618
(dp3619
g19
I1062
sg27
Nsg28
(lp3620
(I00
I1046
tp3621
a(I01
I16
tp3622
asg32
Nsbsg33
I3
sg34
F1063.5
sbs(g9
S'contains(build)'
p3623
tp3624
g0
(g14
g2
Ntp3625
Rp3626
(dp3627
g18
F0.5
sg19
I1062
sg20
g0
(g21
g22
(dp3628
I00
I1044
sI01
I18
stp3629
Rp3630
(dp3631
g19
I1062
sg27
Nsg28
(lp3632
(I00
I1044
tp3633
a(I01
I18
tp3634
asg32
Nsbsg33
I3
sg34
F1063.5
sbs(g9
S'contains(change)'
p3635
tp3636
g0
(g14
g2
Ntp3637
Rp3638
(dp3639
g18
F0.5
sg19
I1062
sg20
g0
(g21
g22
(dp3640
I00
I1033
sI01
I29
stp3641
Rp3642
(dp3643
g19
I1062
sg27
Nsg28
(lp3644
(I00
I1033
tp3645
a(I01
I29
tp3646
asg32
Nsbsg33
I3
sg34
F1063.5
sbs(g9
S'contains(account)'
p3647
tp3648
g0
(g14
g2
Ntp3649
Rp3650
(dp3651
g18
F0.5
sg19
I1062
sg20
g0
(g21
g22
(dp3652
I00
I1045
sI01
I17
stp3653
Rp3654
(dp3655
g19
I1062
sg27
Nsg28
(lp3656
(I00
I1045
tp3657
a(I01
I17
tp3658
asg32
Nsbsg33
I3
sg34
F1063.5
sbs(g9
S'contains(trade)'
p3659
tp3660
g0
(g14
g2
Ntp3661
Rp3662
(dp3663
g18
F0.5
sg19
I1062
sg20
g0
(g21
g22
(dp3664
I00
I1024
sI01
I38
stp3665
Rp3666
(dp3667
g19
I1062
sg27
Nsg28
(lp3668
(I00
I1024
tp3669
a(I01
I38
tp3670
asg32
Nsbsg33
I3
sg34
F1063.5
sbs(g8
S'contains(office)'
p3671
tp3672
g0
(g14
g2
Ntp3673
Rp3674
(dp3675
g18
F0.5
sg19
I1062
sg20
g0
(g21
g22
(dp3676
I00
I1040
sI01
I22
stp3677
Rp3678
(dp3679
g19
I1062
sg27
Nsg28
(lp3680
(I00
I1040
tp3681
a(I01
I22
tp3682
asg32
Nsbsg33
I3
sg34
F1063.5
sbs(g8
S'contains(dollar)'
p3683
tp3684
g0
(g14
g2
Ntp3685
Rp3686
(dp3687
g18
F0.5
sg19
I1062
sg20
g0
(g21
g22
(dp3688
I00
I1046
sI01
I16
stp3689
Rp3690
(dp3691
g19
I1062
sg27
Nsg28
(lp3692
(I00
I1046
tp3693
a(I01
I16
tp3694
asg32
Nsbsg33
I3
sg34
F1063.5
sbs(g8
S'contains(position)'
p3695
tp3696
g0
(g14
g2
Ntp3697
Rp3698
(dp3699
g18
F0.5
sg19
I1062
sg20
g0
(g21
g22
(dp3700
I00
I1035
sI01
I27
stp3701
Rp3702
(dp3703
g19
I1062
sg27
Nsg28
(lp3704
(I00
I1035
tp3705
a(I01
I27
tp3706
asg32
Nsbsg33
I3
sg34
F1063.5
sbs(g9
S'contains(dispute)'
p3707
tp3708
g0
(g14
g2
Ntp3709
Rp3710
(dp3711
g18
F0.5
sg19
I1062
sg20
g0
(g21
g22
(dp3712
I00
I1053
sI01
I9
stp3713
Rp3714
(dp3715
g19
I1062
sg27
Nsg28
(lp3716
(I00
I1053
tp3717
a(I01
I9
tp3718
asg32
Nsbsg33
I3
sg34
F1063.5
sbs(g9
S'contains(p)'
p3719
tp3720
g0
(g14
g2
Ntp3721
Rp3722
(dp3723
g18
F0.5
sg19
I1062
sg20
g0
(g21
g22
(dp3724
I00
I1042
sI01
I20
stp3725
Rp3726
(dp3727
g19
I1062
sg27
Nsg28
(lp3728
(I00
I1042
tp3729
a(I01
I20
tp3730
asg32
Nsbsg33
I3
sg34
F1063.5
sbs(g9
S'contains(software)'
p3731
tp3732
g0
(g14
g2
Ntp3733
Rp3734
(dp3735
g18
F0.5
sg19
I1062
sg20
g0
(g21
g22
(dp3736
I00
I1016
sI01
I46
stp3737
Rp3738
(dp3739
g19
I1062
sg27
Nsg28
(lp3740
(I00
I1016
tp3741
a(I01
I46
tp3742
asg32
Nsbsg33
I3
sg34
F1063.5
sbs(g9
S'contains(remain)'
p3743
tp3744
g0
(g14
g2
Ntp3745
Rp3746
(dp3747
g18
F0.5
sg19
I1062
sg20
g0
(g21
g22
(dp3748
I00
I1043
sI01
I19
stp3749
Rp3750
(dp3751
g19
I1062
sg27
Nsg28
(lp3752
(I00
I1043
tp3753
a(I01
I19
tp3754
asg32
Nsbsg33
I3
sg34
F1063.5
sbs(g8
S'contains(sector)'
p3755
tp3756
g0
(g14
g2
Ntp3757
Rp3758
(dp3759
g18
F0.5
sg19
I1062
sg20
g0
(g21
g22
(dp3760
I00
I1056
sI01
I6
stp3761
Rp3762
(dp3763
g19
I1062
sg27
Nsg28
(lp3764
(I00
I1056
tp3765
a(I01
I6
tp3766
asg32
Nsbsg33
I3
sg34
F1063.5
sbs(g8
S'contains(list)'
p3767
tp3768
g0
(g14
g2
Ntp3769
Rp3770
(dp3771
g18
F0.5
sg19
I1062
sg20
g0
(g21
g22
(dp3772
I00
I1049
sI01
I13
stp3773
Rp3774
(dp3775
g19
I1062
sg27
Nsg28
(lp3776
(I00
I1049
tp3777
a(I01
I13
tp3778
asg32
Nsbsg33
I3
sg34
F1063.5
sbs(g9
S'contains(question)'
p3779
tp3780
g0
(g14
g2
Ntp3781
Rp3782
(dp3783
g18
F0.5
sg19
I1062
sg20
g0
(g21
g22
(dp3784
I00
I1047
sI01
I15
stp3785
Rp3786
(dp3787
g19
I1062
sg27
Nsg28
(lp3788
(I00
I1047
tp3789
a(I01
I15
tp3790
asg32
Nsbsg33
I3
sg34
F1063.5
sbs(g9
S'contains(fear)'
p3791
tp3792
g0
(g14
g2
Ntp3793
Rp3794
(dp3795
g18
F0.5
sg19
I1062
sg20
g0
(g21
g22
(dp3796
I00
I1052
sI01
I10
stp3797
Rp3798
(dp3799
g19
I1062
sg27
Nsg28
(lp3800
(I00
I1052
tp3801
a(I01
I10
tp3802
asg32
Nsbsg33
I3
sg34
F1063.5
sbs(g9
S'contains(client)'
p3803
tp3804
g0
(g14
g2
Ntp3805
Rp3806
(dp3807
g18
F0.5
sg19
I1062
sg20
g0
(g21
g22
(dp3808
I00
I1047
sI01
I15
stp3809
Rp3810
(dp3811
g19
I1062
sg27
Nsg28
(lp3812
(I00
I1047
tp3813
a(I01
I15
tp3814
asg32
Nsbsg33
I3
sg34
F1063.5
sbs(g8
S'contains(system)'
p3815
tp3816
g0
(g14
g2
Ntp3817
Rp3818
(dp3819
g18
F0.5
sg19
I1062
sg20
g0
(g21
g22
(dp3820
I00
I1034
sI01
I28
stp3821
Rp3822
(dp3823
g19
I1062
sg27
Nsg28
(lp3824
(I00
I1034
tp3825
a(I01
I28
tp3826
asg32
Nsbsg33
I3
sg34
F1063.5
sbs(g9
S'contains(sell)'
p3827
tp3828
g0
(g14
g2
Ntp3829
Rp3830
(dp3831
g18
F0.5
sg19
I1062
sg20
g0
(g21
g22
(dp3832
I00
I1010
sI01
I52
stp3833
Rp3834
(dp3835
g19
I1062
sg27
Nsg28
(lp3836
(I00
I1010
tp3837
a(I01
I52
tp3838
asg32
Nsbsg33
I3
sg34
F1063.5
sbs(g9
S'contains(estimate)'
p3839
tp3840
g0
(g14
g2
Ntp3841
Rp3842
(dp3843
g18
F0.5
sg19
I1062
sg20
g0
(g21
g22
(dp3844
I00
I1043
sI01
I19
stp3845
Rp3846
(dp3847
g19
I1062
sg27
Nsg28
(lp3848
(I00
I1043
tp3849
a(I01
I19
tp3850
asg32
Nsbsg33
I3
sg34
F1063.5
sbs(g8
S'contains(data)'
p3851
tp3852
g0
(g14
g2
Ntp3853
Rp3854
(dp3855
g18
F0.5
sg19
I1062
sg20
g0
(g21
g22
(dp3856
I00
I1029
sI01
I33
stp3857
Rp3858
(dp3859
g19
I1062
sg27
Nsg28
(lp3860
(I00
I1029
tp3861
a(I01
I33
tp3862
asg32
Nsbsg33
I3
sg34
F1063.5
sbs(g9
S'contains(continue)'
p3863
tp3864
g0
(g14
g2
Ntp3865
Rp3866
(dp3867
g18
F0.5
sg19
I1062
sg20
g0
(g21
g22
(dp3868
I00
I1035
sI01
I27
stp3869
Rp3870
(dp3871
g19
I1062
sg27
Nsg28
(lp3872
(I00
I1035
tp3873
a(I01
I27
tp3874
asg32
Nsbsg33
I3
sg34
F1063.5
sbs(g9
S'contains(buy)'
p3875
tp3876
g0
(g14
g2
Ntp3877
Rp3878
(dp3879
g18
F0.5
sg19
I1062
sg20
g0
(g21
g22
(dp3880
I00
I1020
sI01
I42
stp3881
Rp3882
(dp3883
g19
I1062
sg27
Nsg28
(lp3884
(I00
I1020
tp3885
a(I01
I42
tp3886
asg32
Nsbsg33
I3
sg34
F1063.5
sbs(g8
S'contains(tech)'
p3887
tp3888
g0
(g14
g2
Ntp3889
Rp3890
(dp3891
g18
F0.5
sg19
I1062
sg20
g0
(g21
g22
(dp3892
I00
I1046
sI01
I16
stp3893
Rp3894
(dp3895
g19
I1062
sg27
Nsg28
(lp3896
(I00
I1046
tp3897
a(I01
I16
tp3898
asg32
Nsbsg33
I3
sg34
F1063.5
sbs(g9
S'contains(commission)'
p3899
tp3900
g0
(g14
g2
Ntp3901
Rp3902
(dp3903
g18
F0.5
sg19
I1062
sg20
g0
(g21
g22
(dp3904
I00
I1039
sI01
I23
stp3905
Rp3906
(dp3907
g19
I1062
sg27
Nsg28
(lp3908
(I00
I1039
tp3909
a(I01
I23
tp3910
asg32
Nsbsg33
I3
sg34
F1063.5
sbs(g9
S'contains(jamie)'
p3911
tp3912
g0
(g14
g2
Ntp3913
Rp3914
(dp3915
g18
F0.5
sg19
I1062
sg20
g0
(g21
g22
(dp3916
I00
I1051
sI01
I11
stp3917
Rp3918
(dp3919
g19
I1062
sg27
Nsg28
(lp3920
(I00
I1051
tp3921
a(I01
I11
tp3922
asg32
Nsbsg33
I3
sg34
F1063.5
sbs(g8
S'contains(action)'
p3923
tp3924
g0
(g14
g2
Ntp3925
Rp3926
(dp3927
g18
F0.5
sg19
I1062
sg20
g0
(g21
g22
(dp3928
I00
I1049
sI01
I13
stp3929
Rp3930
(dp3931
g19
I1062
sg27
Nsg28
(lp3932
(I00
I1049
tp3933
a(I01
I13
tp3934
asg32
Nsbsg33
I3
sg34
F1063.5
sbs(g8
S'contains(job)'
p3935
tp3936
g0
(g14
g2
Ntp3937
Rp3938
(dp3939
g18
F0.5
sg19
I1062
sg20
g0
(g21
g22
(dp3940
I00
I1041
sI01
I21
stp3941
Rp3942
(dp3943
g19
I1062
sg27
Nsg28
(lp3944
(I00
I1041
tp3945
a(I01
I21
tp3946
asg32
Nsbsg33
I3
sg34
F1063.5
sbs(g9
S'contains(step)'
p3947
tp3948
g0
(g14
g2
Ntp3949
Rp3950
(dp3951
g18
F0.5
sg19
I1062
sg20
g0
(g21
g22
(dp3952
I00
I1046
sI01
I16
stp3953
Rp3954
(dp3955
g19
I1062
sg27
Nsg28
(lp3956
(I00
I1046
tp3957
a(I01
I16
tp3958
asg32
Nsbsg33
I3
sg34
F1063.5
sbs(g9
S'contains(reduce)'
p3959
tp3960
g0
(g14
g2
Ntp3961
Rp3962
(dp3963
g18
F0.5
sg19
I1062
sg20
g0
(g21
g22
(dp3964
I00
I1051
sI01
I11
stp3965
Rp3966
(dp3967
g19
I1062
sg27
Nsg28
(lp3968
(I00
I1051
tp3969
a(I01
I11
tp3970
asg32
Nsbsg33
I3
sg34
F1063.5
sbs(g8
S'contains(loan)'
p3971
tp3972
g0
(g14
g2
Ntp3973
Rp3974
(dp3975
g18
F0.5
sg19
I1062
sg20
g0
(g21
g22
(dp3976
I00
I1034
sI01
I28
stp3977
Rp3978
(dp3979
g19
I1062
sg27
Nsg28
(lp3980
(I00
I1034
tp3981
a(I01
I28
tp3982
asg32
Nsbsg33
I3
sg34
F1063.5
sbs(g9
S'contains(show)'
p3983
tp3984
g0
(g14
g2
Ntp3985
Rp3986
(dp3987
g18
F0.5
sg19
I1062
sg20
g0
(g21
g22
(dp3988
I00
I1034
sI01
I28
stp3989
Rp3990
(dp3991
g19
I1062
sg27
Nsg28
(lp3992
(I00
I1034
tp3993
a(I01
I28
tp3994
asg32
Nsbsg33
I3
sg34
F1063.5
sbs(g8
S'contains(banking)'
p3995
tp3996
g0
(g14
g2
Ntp3997
Rp3998
(dp3999
g18
F0.5
sg19
I1062
sg20
g0
(g21
g22
(dp4000
I00
I1038
sI01
I24
stp4001
Rp4002
(dp4003
g19
I1062
sg27
Nsg28
(lp4004
(I00
I1038
tp4005
a(I01
I24
tp4006
asg32
Nsbsg33
I3
sg34
F1063.5
sbs(g8
S'contains(run)'
p4007
tp4008
g0
(g14
g2
Ntp4009
Rp4010
(dp4011
g18
F0.5
sg19
I1062
sg20
g0
(g21
g22
(dp4012
I00
I1043
sI01
I19
stp4013
Rp4014
(dp4015
g19
I1062
sg27
Nsg28
(lp4016
(I00
I1043
tp4017
a(I01
I19
tp4018
asg32
Nsbsg33
I3
sg34
F1063.5
sbs(g9
S'contains(work)'
p4019
tp4020
g0
(g14
g2
Ntp4021
Rp4022
(dp4023
g18
F0.5
sg19
I1062
sg20
g0
(g21
g22
(dp4024
I00
I1033
sI01
I29
stp4025
Rp4026
(dp4027
g19
I1062
sg27
Nsg28
(lp4028
(I00
I1033
tp4029
a(I01
I29
tp4030
asg32
Nsbsg33
I3
sg34
F1063.5
sbs(g9
S'contains(industry)'
p4031
tp4032
g0
(g14
g2
Ntp4033
Rp4034
(dp4035
g18
F0.5
sg19
I1062
sg20
g0
(g21
g22
(dp4036
I00
I1042
sI01
I20
stp4037
Rp4038
(dp4039
g19
I1062
sg27
Nsg28
(lp4040
(I00
I1042
tp4041
a(I01
I20
tp4042
asg32
Nsbsg33
I3
sg34
F1063.5
sbs(g8
S'contains(september)'
p4043
tp4044
g0
(g14
g2
Ntp4045
Rp4046
(dp4047
g18
F0.5
sg19
I1062
sg20
g0
(g21
g22
(dp4048
I00
I1039
sI01
I23
stp4049
Rp4050
(dp4051
g19
I1062
sg27
Nsg28
(lp4052
(I00
I1039
tp4053
a(I01
I23
tp4054
asg32
Nsbsg33
I3
sg34
F1063.5
sbs(g8
S'contains(come)'
p4055
tp4056
g0
(g14
g2
Ntp4057
Rp4058
(dp4059
g18
F0.5
sg19
I1062
sg20
g0
(g21
g22
(dp4060
I00
I1013
sI01
I49
stp4061
Rp4062
(dp4063
g19
I1062
sg27
Nsg28
(lp4064
(I00
I1013
tp4065
a(I01
I49
tp4066
asg32
Nsbsg33
I3
sg34
F1063.5
sbs(g9
S'contains(version)'
p4067
tp4068
g0
(g14
g2
Ntp4069
Rp4070
(dp4071
g18
F0.5
sg19
I1062
sg20
g0
(g21
g22
(dp4072
I00
I1047
sI01
I15
stp4073
Rp4074
(dp4075
g19
I1062
sg27
Nsg28
(lp4076
(I00
I1047
tp4077
a(I01
I15
tp4078
asg32
Nsbsg33
I3
sg34
F1063.5
sbs(g8
S'contains(warn)'
p4079
tp4080
g0
(g14
g2
Ntp4081
Rp4082
(dp4083
g18
F0.5
sg19
I1062
sg20
g0
(g21
g22
(dp4084
I00
I1045
sI01
I17
stp4085
Rp4086
(dp4087
g19
I1062
sg27
Nsg28
(lp4088
(I00
I1045
tp4089
a(I01
I17
tp4090
asg32
Nsbsg33
I3
sg34
F1063.5
sbs(g8
S'contains(tuesday)'
p4091
tp4092
g0
(g14
g2
Ntp4093
Rp4094
(dp4095
g18
F0.5
sg19
I1062
sg20
g0
(g21
g22
(dp4096
I00
I1048
sI01
I14
stp4097
Rp4098
(dp4099
g19
I1062
sg27
Nsg28
(lp4100
(I00
I1048
tp4101
a(I01
I14
tp4102
asg32
Nsbsg33
I3
sg34
F1063.5
sbs(g8
S'contains(tax)'
p4103
tp4104
g0
(g14
g2
Ntp4105
Rp4106
(dp4107
g18
F0.5
sg19
I1062
sg20
g0
(g21
g22
(dp4108
I00
I1034
sI01
I28
stp4109
Rp4110
(dp4111
g19
I1062
sg27
Nsg28
(lp4112
(I00
I1034
tp4113
a(I01
I28
tp4114
asg32
Nsbsg33
I3
sg34
F1063.5
sbs(g9
S'contains(court)'
p4115
tp4116
g0
(g14
g2
Ntp4117
Rp4118
(dp4119
g18
F0.5
sg19
I1062
sg20
g0
(g21
g22
(dp4120
I00
I1041
sI01
I21
stp4121
Rp4122
(dp4123
g19
I1062
sg27
Nsg28
(lp4124
(I00
I1041
tp4125
a(I01
I21
tp4126
asg32
Nsbsg33
I3
sg34
F1063.5
sbs(g9
S'contains(june)'
p4127
tp4128
g0
(g14
g2
Ntp4129
Rp4130
(dp4131
g18
F0.5
sg19
I1062
sg20
g0
(g21
g22
(dp4132
I00
I1051
sI01
I11
stp4133
Rp4134
(dp4135
g19
I1062
sg27
Nsg28
(lp4136
(I00
I1051
tp4137
a(I01
I11
tp4138
asg32
Nsbsg33
I3
sg34
F1063.5
sbs(g9
S'contains(debt)'
p4139
tp4140
g0
(g14
g2
Ntp4141
Rp4142
(dp4143
g18
F0.5
sg19
I1062
sg20
g0
(g21
g22
(dp4144
I00
I1047
sI01
I15
stp4145
Rp4146
(dp4147
g19
I1062
sg27
Nsg28
(lp4148
(I00
I1047
tp4149
a(I01
I15
tp4150
asg32
Nsbsg33
I3
sg34
F1063.5
sbs(g9
S'contains(raise)'
p4151
tp4152
g0
(g14
g2
Ntp4153
Rp4154
(dp4155
g18
F0.5
sg19
I1062
sg20
g0
(g21
g22
(dp4156
I00
I1042
sI01
I20
stp4157
Rp4158
(dp4159
g19
I1062
sg27
Nsg28
(lp4160
(I00
I1042
tp4161
a(I01
I20
tp4162
asg32
Nsbsg33
I3
sg34
F1063.5
sbs(g8
S'contains(authority)'
p4163
tp4164
g0
(g14
g2
Ntp4165
Rp4166
(dp4167
g18
F0.5
sg19
I1062
sg20
g0
(g21
g22
(dp4168
I00
I1046
sI01
I16
stp4169
Rp4170
(dp4171
g19
I1062
sg27
Nsg28
(lp4172
(I00
I1046
tp4173
a(I01
I16
tp4174
asg32
Nsbsg33
I3
sg34
F1063.5
sbs(g9
S'contains(state)'
p4175
tp4176
g0
(g14
g2
Ntp4177
Rp4178
(dp4179
g18
F0.5
sg19
I1062
sg20
g0
(g21
g22
(dp4180
I00
I1044
sI01
I18
stp4181
Rp4182
(dp4183
g19
I1062
sg27
Nsg28
(lp4184
(I00
I1044
tp4185
a(I01
I18
tp4186
asg32
Nsbsg33
I3
sg34
F1063.5
sbs(g9
S'contains(risk)'
p4187
tp4188
g0
(g14
g2
Ntp4189
Rp4190
(dp4191
g18
F0.5
sg19
I1062
sg20
g0
(g21
g22
(dp4192
I00
I1042
sI01
I20
stp4193
Rp4194
(dp4195
g19
I1062
sg27
Nsg28
(lp4196
(I00
I1042
tp4197
a(I01
I20
tp4198
asg32
Nsbsg33
I3
sg34
F1063.5
sbs(g9
S'contains(value)'
p4199
tp4200
g0
(g14
g2
Ntp4201
Rp4202
(dp4203
g18
F0.5
sg19
I1062
sg20
g0
(g21
g22
(dp4204
I00
I1045
sI01
I17
stp4205
Rp4206
(dp4207
g19
I1062
sg27
Nsg28
(lp4208
(I00
I1045
tp4209
a(I01
I17
tp4210
asg32
Nsbsg33
I3
sg34
F1063.5
sbs(g8
S'contains(economy)'
p4211
tp4212
g0
(g14
g2
Ntp4213
Rp4214
(dp4215
g18
F0.5
sg19
I1062
sg20
g0
(g21
g22
(dp4216
I00
I1051
sI01
I11
stp4217
Rp4218
(dp4219
g19
I1062
sg27
Nsg28
(lp4220
(I00
I1051
tp4221
a(I01
I11
tp4222
asg32
Nsbsg33
I3
sg34
F1063.5
sbs(g9
S'contains(research)'
p4223
tp4224
g0
(g14
g2
Ntp4225
Rp4226
(dp4227
g18
F0.5
sg19
I1062
sg20
g0
(g21
g22
(dp4228
I00
I1050
sI01
I12
stp4229
Rp4230
(dp4231
g19
I1062
sg27
Nsg28
(lp4232
(I00
I1050
tp4233
a(I01
I12
tp4234
asg32
Nsbsg33
I3
sg34
F1063.5
sbs(g9
S'contains(dollar)'
p4235
tp4236
g0
(g14
g2
Ntp4237
Rp4238
(dp4239
g18
F0.5
sg19
I1062
sg20
g0
(g21
g22
(dp4240
I00
I1040
sI01
I22
stp4241
Rp4242
(dp4243
g19
I1062
sg27
Nsg28
(lp4244
(I00
I1040
tp4245
a(I01
I22
tp4246
asg32
Nsbsg33
I3
sg34
F1063.5
sbs(g8
S'contains(dispute)'
p4247
tp4248
g0
(g14
g2
Ntp4249
Rp4250
(dp4251
g18
F0.5
sg19
I1062
sg20
g0
(g21
g22
(dp4252
I00
I1046
sI01
I16
stp4253
Rp4254
(dp4255
g19
I1062
sg27
Nsg28
(lp4256
(I00
I1046
tp4257
a(I01
I16
tp4258
asg32
Nsbsg33
I3
sg34
F1063.5
sbs(g9
S'contains(banking)'
p4259
tp4260
g0
(g14
g2
Ntp4261
Rp4262
(dp4263
g18
F0.5
sg19
I1062
sg20
g0
(g21
g22
(dp4264
I00
I1043
sI01
I19
stp4265
Rp4266
(dp4267
g19
I1062
sg27
Nsg28
(lp4268
(I00
I1043
tp4269
a(I01
I19
tp4270
asg32
Nsbsg33
I3
sg34
F1063.5
sbs(g9
S'contains(comment)'
p4271
tp4272
g0
(g14
g2
Ntp4273
Rp4274
(dp4275
g18
F0.5
sg19
I1062
sg20
g0
(g21
g22
(dp4276
I00
I1046
sI01
I16
stp4277
Rp4278
(dp4279
g19
I1062
sg27
Nsg28
(lp4280
(I00
I1046
tp4281
a(I01
I16
tp4282
asg32
Nsbsg33
I3
sg34
F1063.5
sbs(g8
S'contains(p)'
p4283
tp4284
g0
(g14
g2
Ntp4285
Rp4286
(dp4287
g18
F0.5
sg19
I1062
sg20
g0
(g21
g22
(dp4288
I00
I1053
sI01
I9
stp4289
Rp4290
(dp4291
g19
I1062
sg27
Nsg28
(lp4292
(I00
I1053
tp4293
a(I01
I9
tp4294
asg32
Nsbsg33
I3
sg34
F1063.5
sbs(g8
S'contains(issue)'
p4295
tp4296
g0
(g14
g2
Ntp4297
Rp4298
(dp4299
g18
F0.5
sg19
I1062
sg20
g0
(g21
g22
(dp4300
I00
I1036
sI01
I26
stp4301
Rp4302
(dp4303
g19
I1062
sg27
Nsg28
(lp4304
(I00
I1036
tp4305
a(I01
I26
tp4306
asg32
Nsbsg33
I3
sg34
F1063.5
sbs(g9
S'contains(sector)'
p4307
tp4308
g0
(g14
g2
Ntp4309
Rp4310
(dp4311
g18
F0.5
sg19
I1062
sg20
g0
(g21
g22
(dp4312
I00
I1045
sI01
I17
stp4313
Rp4314
(dp4315
g19
I1062
sg27
Nsg28
(lp4316
(I00
I1045
tp4317
a(I01
I17
tp4318
asg32
Nsbsg33
I3
sg34
F1063.5
sbs(g8
S'contains(fear)'
p4319
tp4320
g0
(g14
g2
Ntp4321
Rp4322
(dp4323
g18
F0.5
sg19
I1062
sg20
g0
(g21
g22
(dp4324
I00
I1034
sI01
I28
stp4325
Rp4326
(dp4327
g19
I1062
sg27
Nsg28
(lp4328
(I00
I1034
tp4329
a(I01
I28
tp4330
asg32
Nsbsg33
I3
sg34
F1063.5
sbs(g8
S'contains(make)'
p4331
tp4332
g0
(g14
g2
Ntp4333
Rp4334
(dp4335
g18
F0.5
sg19
I1062
sg20
g0
(g21
g22
(dp4336
I00
I1000
sI01
I62
stp4337
Rp4338
(dp4339
g19
I1062
sg27
Nsg28
(lp4340
(I00
I1000
tp4341
a(I01
I62
tp4342
asg32
Nsbsg33
I3
sg34
F1063.5
sbs(g9
S'contains(smartphones)'
p4343
tp4344
g0
(g14
g2
Ntp4345
Rp4346
(dp4347
g18
F0.5
sg19
I1062
sg20
g0
(g21
g22
(dp4348
I00
I1048
sI01
I14
stp4349
Rp4350
(dp4351
g19
I1062
sg27
Nsg28
(lp4352
(I00
I1048
tp4353
a(I01
I14
tp4354
asg32
Nsbsg33
I3
sg34
F1063.5
sbs(g9
S'contains(ad)'
p4355
tp4356
g0
(g14
g2
Ntp4357
Rp4358
(dp4359
g18
F0.5
sg19
I1062
sg20
g0
(g21
g22
(dp4360
I00
I1041
sI01
I21
stp4361
Rp4362
(dp4363
g19
I1062
sg27
Nsg28
(lp4364
(I00
I1041
tp4365
a(I01
I21
tp4366
asg32
Nsbsg33
I3
sg34
F1063.5
sbs(g9
S'contains(director)'
p4367
tp4368
g0
(g14
g2
Ntp4369
Rp4370
(dp4371
g18
F0.5
sg19
I1062
sg20
g0
(g21
g22
(dp4372
I00
I1051
sI01
I11
stp4373
Rp4374
(dp4375
g19
I1062
sg27
Nsg28
(lp4376
(I00
I1051
tp4377
a(I01
I11
tp4378
asg32
Nsbsg33
I3
sg34
F1063.5
sbs(g8
S'contains(follow)'
p4379
tp4380
g0
(g14
g2
Ntp4381
Rp4382
(dp4383
g18
F0.5
sg19
I1062
sg20
g0
(g21
g22
(dp4384
I00
I1037
sI01
I25
stp4385
Rp4386
(dp4387
g19
I1062
sg27
Nsg28
(lp4388
(I00
I1037
tp4389
a(I01
I25
tp4390
asg32
Nsbsg33
I3
sg34
F1063.5
sbs(g9
S'contains(equity)'
p4391
tp4392
g0
(g14
g2
Ntp4393
Rp4394
(dp4395
g18
F0.5
sg19
I1062
sg20
g0
(g21
g22
(dp4396
I00
I1036
sI01
I26
stp4397
Rp4398
(dp4399
g19
I1062
sg27
Nsg28
(lp4400
(I00
I1036
tp4401
a(I01
I26
tp4402
asg32
Nsbsg33
I3
sg34
F1063.5
sbs(g9
S'contains(operate)'
p4403
tp4404
g0
(g14
g2
Ntp4405
Rp4406
(dp4407
g18
F0.5
sg19
I1062
sg20
g0
(g21
g22
(dp4408
I00
I1047
sI01
I15
stp4409
Rp4410
(dp4411
g19
I1062
sg27
Nsg28
(lp4412
(I00
I1047
tp4413
a(I01
I15
tp4414
asg32
Nsbsg33
I3
sg34
F1063.5
sbs(g9
S'contains(tech)'
p4415
tp4416
g0
(g14
g2
Ntp4417
Rp4418
(dp4419
g18
F0.5
sg19
I1062
sg20
g0
(g21
g22
(dp4420
I00
I1050
sI01
I12
stp4421
Rp4422
(dp4423
g19
I1062
sg27
Nsg28
(lp4424
(I00
I1050
tp4425
a(I01
I12
tp4426
asg32
Nsbsg33
I3
sg34
F1063.5
sbs(g9
S'contains(investment)'
p4427
tp4428
g0
(g14
g2
Ntp4429
Rp4430
(dp4431
g18
F0.5
sg19
I1062
sg20
g0
(g21
g22
(dp4432
I00
I1006
sI01
I56
stp4433
Rp4434
(dp4435
g19
I1062
sg27
Nsg28
(lp4436
(I00
I1006
tp4437
a(I01
I56
tp4438
asg32
Nsbsg33
I3
sg34
F1063.5
sbs(g9
S'contains(credit)'
p4439
tp4440
g0
(g14
g2
Ntp4441
Rp4442
(dp4443
g18
F0.5
sg19
I1062
sg20
g0
(g21
g22
(dp4444
I00
I1034
sI01
I28
stp4445
Rp4446
(dp4447
g19
I1062
sg27
Nsg28
(lp4448
(I00
I1034
tp4449
a(I01
I28
tp4450
asg32
Nsbsg33
I3
sg34
F1063.5
sbs(g8
S'contains(complaint)'
p4451
tp4452
g0
(g14
g2
Ntp4453
Rp4454
(dp4455
g18
F0.5
sg19
I1062
sg20
g0
(g21
g22
(dp4456
I00
I1034
sI01
I28
stp4457
Rp4458
(dp4459
g19
I1062
sg27
Nsg28
(lp4460
(I00
I1034
tp4461
a(I01
I28
tp4462
asg32
Nsbsg33
I3
sg34
F1063.5
sbs(g8
S'contains(online)'
p4463
tp4464
g0
(g14
g2
Ntp4465
Rp4466
(dp4467
g18
F0.5
sg19
I1062
sg20
g0
(g21
g22
(dp4468
I00
I1045
sI01
I17
stp4469
Rp4470
(dp4471
g19
I1062
sg27
Nsg28
(lp4472
(I00
I1045
tp4473
a(I01
I17
tp4474
asg32
Nsbsg33
I3
sg34
F1063.5
sbs(g9
S'contains(internet)'
p4475
tp4476
g0
(g14
g2
Ntp4477
Rp4478
(dp4479
g18
F0.5
sg19
I1062
sg20
g0
(g21
g22
(dp4480
I00
I1034
sI01
I28
stp4481
Rp4482
(dp4483
g19
I1062
sg27
Nsg28
(lp4484
(I00
I1034
tp4485
a(I01
I28
tp4486
asg32
Nsbsg33
I3
sg34
F1063.5
sbs(g9
S'contains(loan)'
p4487
tp4488
g0
(g14
g2
Ntp4489
Rp4490
(dp4491
g18
F0.5
sg19
I1062
sg20
g0
(g21
g22
(dp4492
I00
I1040
sI01
I22
stp4493
Rp4494
(dp4495
g19
I1062
sg27
Nsg28
(lp4496
(I00
I1040
tp4497
a(I01
I22
tp4498
asg32
Nsbsg33
I3
sg34
F1063.5
sbs(g8
S'contains(home)'
p4499
tp4500
g0
(g14
g2
Ntp4501
Rp4502
(dp4503
g18
F0.5
sg19
I1062
sg20
g0
(g21
g22
(dp4504
I00
I1047
sI01
I15
stp4505
Rp4506
(dp4507
g19
I1062
sg27
Nsg28
(lp4508
(I00
I1047
tp4509
a(I01
I15
tp4510
asg32
Nsbsg33
I3
sg34
F1063.5
sbs(g9
S'contains(window)'
p4511
tp4512
g0
(g14
g2
Ntp4513
Rp4514
(dp4515
g18
F0.5
sg19
I1062
sg20
g0
(g21
g22
(dp4516
I00
I1035
sI01
I27
stp4517
Rp4518
(dp4519
g19
I1062
sg27
Nsg28
(lp4520
(I00
I1035
tp4521
a(I01
I27
tp4522
asg32
Nsbsg33
I3
sg34
F1063.5
sbs(g8
S'contains(become)'
p4523
tp4524
g0
(g14
g2
Ntp4525
Rp4526
(dp4527
g18
F0.5
sg19
I1062
sg20
g0
(g21
g22
(dp4528
I00
I1036
sI01
I26
stp4529
Rp4530
(dp4531
g19
I1062
sg27
Nsg28
(lp4532
(I00
I1036
tp4533
a(I01
I26
tp4534
asg32
Nsbsg33
I3
sg34
F1063.5
sbs(g8
S'contains(leave)'
p4535
tp4536
g0
(g14
g2
Ntp4537
Rp4538
(dp4539
g18
F0.5
sg19
I1062
sg20
g0
(g21
g22
(dp4540
I00
I1042
sI01
I20
stp4541
Rp4542
(dp4543
g19
I1062
sg27
Nsg28
(lp4544
(I00
I1042
tp4545
a(I01
I20
tp4546
asg32
Nsbsg33
I3
sg34
F1063.5
sbs(g8
S'contains(forecast)'
p4547
tp4548
g0
(g14
g2
Ntp4549
Rp4550
(dp4551
g18
F0.5
sg19
I1062
sg20
g0
(g21
g22
(dp4552
I00
I1044
sI01
I18
stp4553
Rp4554
(dp4555
g19
I1062
sg27
Nsg28
(lp4556
(I00
I1044
tp4557
a(I01
I18
tp4558
asg32
Nsbsg33
I3
sg34
F1063.5
sbs(g8
S'contains(operating)'
p4559
tp4560
g0
(g14
g2
Ntp4561
Rp4562
(dp4563
g18
F0.5
sg19
I1062
sg20
g0
(g21
g22
(dp4564
I00
I1051
sI01
I11
stp4565
Rp4566
(dp4567
g19
I1062
sg27
Nsg28
(lp4568
(I00
I1051
tp4569
a(I01
I11
tp4570
asg32
Nsbsg33
I3
sg34
F1063.5
sbs(g9
S'contains(citigroup)'
p4571
tp4572
g0
(g14
g2
Ntp4573
Rp4574
(dp4575
g18
F0.5
sg19
I1062
sg20
g0
(g21
g22
(dp4576
I00
I1043
sI01
I19
stp4577
Rp4578
(dp4579
g19
I1062
sg27
Nsg28
(lp4580
(I00
I1043
tp4581
a(I01
I19
tp4582
asg32
Nsbsg33
I3
sg34
F1063.5
sbs(g9
S'contains(acquisition)'
p4583
tp4584
g0
(g14
g2
Ntp4585
Rp4586
(dp4587
g18
F0.5
sg19
I1062
sg20
g0
(g21
g22
(dp4588
I00
I1046
sI01
I16
stp4589
Rp4590
(dp4591
g19
I1062
sg27
Nsg28
(lp4592
(I00
I1046
tp4593
a(I01
I16
tp4594
asg32
Nsbsg33
I3
sg34
F1063.5
sbs(g9
S'contains(warn)'
p4595
tp4596
g0
(g14
g2
Ntp4597
Rp4598
(dp4599
g18
F0.5
sg19
I1062
sg20
g0
(g21
g22
(dp4600
I00
I1051
sI01
I11
stp4601
Rp4602
(dp4603
g19
I1062
sg27
Nsg28
(lp4604
(I00
I1051
tp4605
a(I01
I11
tp4606
asg32
Nsbsg33
I3
sg34
F1063.5
sbs(g9
S'contains(relate)'
p4607
tp4608
g0
(g14
g2
Ntp4609
Rp4610
(dp4611
g18
F0.5
sg19
I1062
sg20
g0
(g21
g22
(dp4612
I00
I1048
sI01
I14
stp4613
Rp4614
(dp4615
g19
I1062
sg27
Nsg28
(lp4616
(I00
I1048
tp4617
a(I01
I14
tp4618
asg32
Nsbsg33
I3
sg34
F1063.5
sbs(g8
S'contains(friday)'
p4619
tp4620
g0
(g14
g2
Ntp4621
Rp4622
(dp4623
g18
F0.5
sg19
I1062
sg20
g0
(g21
g22
(dp4624
I00
I1043
sI01
I19
stp4625
Rp4626
(dp4627
g19
I1062
sg27
Nsg28
(lp4628
(I00
I1043
tp4629
a(I01
I19
tp4630
asg32
Nsbsg33
I3
sg34
F1063.5
sbs(g8
S'contains(help)'
p4631
tp4632
g0
(g14
g2
Ntp4633
Rp4634
(dp4635
g18
F0.5
sg19
I1062
sg20
g0
(g21
g22
(dp4636
I00
I1047
sI01
I15
stp4637
Rp4638
(dp4639
g19
I1062
sg27
Nsg28
(lp4640
(I00
I1047
tp4641
a(I01
I15
tp4642
asg32
Nsbsg33
I3
sg34
F1063.5
sbs(g9
S'contains(view)'
p4643
tp4644
g0
(g14
g2
Ntp4645
Rp4646
(dp4647
g18
F0.5
sg19
I1062
sg20
g0
(g21
g22
(dp4648
I00
I1050
sI01
I12
stp4649
Rp4650
(dp4651
g19
I1062
sg27
Nsg28
(lp4652
(I00
I1050
tp4653
a(I01
I12
tp4654
asg32
Nsbsg33
I3
sg34
F1063.5
sbs(g8
S'contains(regulator)'
p4655
tp4656
g0
(g14
g2
Ntp4657
Rp4658
(dp4659
g18
F0.5
sg19
I1062
sg20
g0
(g21
g22
(dp4660
I00
I1029
sI01
I33
stp4661
Rp4662
(dp4663
g19
I1062
sg27
Nsg28
(lp4664
(I00
I1029
tp4665
a(I01
I33
tp4666
asg32
Nsbsg33
I3
sg34
F1063.5
sbs(g8
S'contains(head)'
p4667
tp4668
g0
(g14
g2
Ntp4669
Rp4670
(dp4671
g18
F0.5
sg19
I1062
sg20
g0
(g21
g22
(dp4672
I00
I1029
sI01
I33
stp4673
Rp4674
(dp4675
g19
I1062
sg27
Nsg28
(lp4676
(I00
I1029
tp4677
a(I01
I33
tp4678
asg32
Nsbsg33
I3
sg34
F1063.5
sbs(g9
S'contains(challenge)'
p4679
tp4680
g0
(g14
g2
Ntp4681
Rp4682
(dp4683
g18
F0.5
sg19
I1062
sg20
g0
(g21
g22
(dp4684
I00
I1046
sI01
I16
stp4685
Rp4686
(dp4687
g19
I1062
sg27
Nsg28
(lp4688
(I00
I1046
tp4689
a(I01
I16
tp4690
asg32
Nsbsg33
I3
sg34
F1063.5
sbs(g8
S'contains(patent)'
p4691
tp4692
g0
(g14
g2
Ntp4693
Rp4694
(dp4695
g18
F0.5
sg19
I1062
sg20
g0
(g21
g22
(dp4696
I00
I1040
sI01
I22
stp4697
Rp4698
(dp4699
g19
I1062
sg27
Nsg28
(lp4700
(I00
I1040
tp4701
a(I01
I22
tp4702
asg32
Nsbsg33
I3
sg34
F1063.5
sbs(g8
S'contains(phone)'
p4703
tp4704
g0
(g14
g2
Ntp4705
Rp4706
(dp4707
g18
F0.5
sg19
I1062
sg20
g0
(g21
g22
(dp4708
I00
I1044
sI01
I18
stp4709
Rp4710
(dp4711
g19
I1062
sg27
Nsg28
(lp4712
(I00
I1044
tp4713
a(I01
I18
tp4714
asg32
Nsbsg33
I3
sg34
F1063.5
sbs(g9
S'contains(tell)'
p4715
tp4716
g0
(g14
g2
Ntp4717
Rp4718
(dp4719
g18
F0.5
sg19
I1062
sg20
g0
(g21
g22
(dp4720
I00
I1036
sI01
I26
stp4721
Rp4722
(dp4723
g19
I1062
sg27
Nsg28
(lp4724
(I00
I1036
tp4725
a(I01
I26
tp4726
asg32
Nsbsg33
I3
sg34
F1063.5
sbs(g9
S'contains(stock)'
p4727
tp4728
g0
(g14
g2
Ntp4729
Rp4730
(dp4731
g18
F0.5
sg19
I1062
sg20
g0
(g21
g22
(dp4732
I00
I1002
sI01
I60
stp4733
Rp4734
(dp4735
g19
I1062
sg27
Nsg28
(lp4736
(I00
I1002
tp4737
a(I01
I60
tp4738
asg32
Nsbsg33
I3
sg34
F1063.5
sbs(g8
S'contains(judge)'
p4739
tp4740
g0
(g14
g2
Ntp4741
Rp4742
(dp4743
g18
F0.5
sg19
I1062
sg20
g0
(g21
g22
(dp4744
I00
I1038
sI01
I24
stp4745
Rp4746
(dp4747
g19
I1062
sg27
Nsg28
(lp4748
(I00
I1038
tp4749
a(I01
I24
tp4750
asg32
Nsbsg33
I3
sg34
F1063.5
sbs(g8
S'contains(find)'
p4751
tp4752
g0
(g14
g2
Ntp4753
Rp4754
(dp4755
g18
F0.5
sg19
I1062
sg20
g0
(g21
g22
(dp4756
I00
I1040
sI01
I22
stp4757
Rp4758
(dp4759
g19
I1062
sg27
Nsg28
(lp4760
(I00
I1040
tp4761
a(I01
I22
tp4762
asg32
Nsbsg33
I3
sg34
F1063.5
sbs(g9
S'contains(rate)'
p4763
tp4764
g0
(g14
g2
Ntp4765
Rp4766
(dp4767
g18
F0.5
sg19
I1062
sg20
g0
(g21
g22
(dp4768
I00
I1051
sI01
I11
stp4769
Rp4770
(dp4771
g19
I1062
sg27
Nsg28
(lp4772
(I00
I1051
tp4773
a(I01
I11
tp4774
asg32
Nsbsg33
I3
sg34
F1063.5
sbs(g8
S'contains(deal)'
p4775
tp4776
g0
(g14
g2
Ntp4777
Rp4778
(dp4779
g18
F0.5
sg19
I1062
sg20
g0
(g21
g22
(dp4780
I00
I1014
sI01
I48
stp4781
Rp4782
(dp4783
g19
I1062
sg27
Nsg28
(lp4784
(I00
I1014
tp4785
a(I01
I48
tp4786
asg32
Nsbsg33
I3
sg34
F1063.5
sbs(g9
S'contains(disclose)'
p4787
tp4788
g0
(g14
g2
Ntp4789
Rp4790
(dp4791
g18
F0.5
sg19
I1062
sg20
g0
(g21
g22
(dp4792
I00
I1050
sI01
I12
stp4793
Rp4794
(dp4795
g19
I1062
sg27
Nsg28
(lp4796
(I00
I1050
tp4797
a(I01
I12
tp4798
asg32
Nsbsg33
I3
sg34
F1063.5
sbs(g9
S'contains(grow)'
p4799
tp4800
g0
(g14
g2
Ntp4801
Rp4802
(dp4803
g18
F0.5
sg19
I1062
sg20
g0
(g21
g22
(dp4804
I00
I1043
sI01
I19
stp4805
Rp4806
(dp4807
g19
I1062
sg27
Nsg28
(lp4808
(I00
I1043
tp4809
a(I01
I19
tp4810
asg32
Nsbsg33
I3
sg34
F1063.5
sbs(g9
S'contains(make)'
p4811
tp4812
g0
(g14
g2
Ntp4813
Rp4814
(dp4815
g18
F0.5
sg19
I1062
sg20
g0
(g21
g22
(dp4816
I00
I978
sI01
I84
stp4817
Rp4818
(dp4819
g19
I1062
sg27
Nsg28
(lp4820
(I00
I978
tp4821
a(I01
I84
tp4822
asg32
Nsbsg33
I3
sg34
F1063.5
sbs(g9
S'contains(control)'
p4823
tp4824
g0
(g14
g2
Ntp4825
Rp4826
(dp4827
g18
F0.5
sg19
I1062
sg20
g0
(g21
g22
(dp4828
I00
I1048
sI01
I14
stp4829
Rp4830
(dp4831
g19
I1062
sg27
Nsg28
(lp4832
(I00
I1048
tp4833
a(I01
I14
tp4834
asg32
Nsbsg33
I3
sg34
F1063.5
sbs(g8
S'contains(mark)'
p4835
tp4836
g0
(g14
g2
Ntp4837
Rp4838
(dp4839
g18
F0.5
sg19
I1062
sg20
g0
(g21
g22
(dp4840
I00
I1049
sI01
I13
stp4841
Rp4842
(dp4843
g19
I1062
sg27
Nsg28
(lp4844
(I00
I1049
tp4845
a(I01
I13
tp4846
asg32
Nsbsg33
I3
sg34
F1063.5
sbs(g8
S'contains(loss)'
p4847
tp4848
g0
(g14
g2
Ntp4849
Rp4850
(dp4851
g18
F0.5
sg19
I1062
sg20
g0
(g21
g22
(dp4852
I00
I958
sI01
I104
stp4853
Rp4854
(dp4855
g19
I1062
sg27
Nsg28
(lp4856
(I00
I958
tp4857
a(I01
I104
tp4858
asg32
Nsbsg33
I3
sg34
F1063.5
sbs(g8
S'contains(iphone)'
p4859
tp4860
g0
(g14
g2
Ntp4861
Rp4862
(dp4863
g18
F0.5
sg19
I1062
sg20
g0
(g21
g22
(dp4864
I00
I1020
sI01
I42
stp4865
Rp4866
(dp4867
g19
I1062
sg27
Nsg28
(lp4868
(I00
I1020
tp4869
a(I01
I42
tp4870
asg32
Nsbsg33
I3
sg34
F1063.5
sbs(g8
S'contains(operate)'
p4871
tp4872
g0
(g14
g2
Ntp4873
Rp4874
(dp4875
g18
F0.5
sg19
I1062
sg20
g0
(g21
g22
(dp4876
I00
I1048
sI01
I14
stp4877
Rp4878
(dp4879
g19
I1062
sg27
Nsg28
(lp4880
(I00
I1048
tp4881
a(I01
I14
tp4882
asg32
Nsbsg33
I3
sg34
F1063.5
sbs(g8
S'contains(information)'
p4883
tp4884
g0
(g14
g2
Ntp4885
Rp4886
(dp4887
g18
F0.5
sg19
I1062
sg20
g0
(g21
g22
(dp4888
I00
I1041
sI01
I21
stp4889
Rp4890
(dp4891
g19
I1062
sg27
Nsg28
(lp4892
(I00
I1041
tp4893
a(I01
I21
tp4894
asg32
Nsbsg33
I3
sg34
F1063.5
sbs(g9
S'contains(use)'
p4895
tp4896
g0
(g14
g2
Ntp4897
Rp4898
(dp4899
g18
F0.5
sg19
I1062
sg20
g0
(g21
g22
(dp4900
I00
I1007
sI01
I55
stp4901
Rp4902
(dp4903
g19
I1062
sg27
Nsg28
(lp4904
(I00
I1007
tp4905
a(I01
I55
tp4906
asg32
Nsbsg33
I3
sg34
F1063.5
sbs(g9
S'contains(settlement)'
p4907
tp4908
g0
(g14
g2
Ntp4909
Rp4910
(dp4911
g18
F0.5
sg19
I1062
sg20
g0
(g21
g22
(dp4912
I00
I1042
sI01
I20
stp4913
Rp4914
(dp4915
g19
I1062
sg27
Nsg28
(lp4916
(I00
I1042
tp4917
a(I01
I20
tp4918
asg32
Nsbsg33
I3
sg34
F1063.5
sbs(g9
S'contains(receive)'
p4919
tp4920
g0
(g14
g2
Ntp4921
Rp4922
(dp4923
g18
F0.5
sg19
I1062
sg20
g0
(g21
g22
(dp4924
I00
I1044
sI01
I18
stp4925
Rp4926
(dp4927
g19
I1062
sg27
Nsg28
(lp4928
(I00
I1044
tp4929
a(I01
I18
tp4930
asg32
Nsbsg33
I3
sg34
F1063.5
sbs(g9
S'contains(expect)'
p4931
tp4932
g0
(g14
g2
Ntp4933
Rp4934
(dp4935
g18
F0.5
sg19
I1062
sg20
g0
(g21
g22
(dp4936
I00
I1013
sI01
I49
stp4937
Rp4938
(dp4939
g19
I1062
sg27
Nsg28
(lp4940
(I00
I1013
tp4941
a(I01
I49
tp4942
asg32
Nsbsg33
I3
sg34
F1063.5
sbs(g8
S'contains(chairman)'
p4943
tp4944
g0
(g14
g2
Ntp4945
Rp4946
(dp4947
g18
F0.5
sg19
I1062
sg20
g0
(g21
g22
(dp4948
I00
I1046
sI01
I16
stp4949
Rp4950
(dp4951
g19
I1062
sg27
Nsg28
(lp4952
(I00
I1046
tp4953
a(I01
I16
tp4954
asg32
Nsbsg33
I3
sg34
F1063.5
sbs(g9
S'contains(review)'
p4955
tp4956
g0
(g14
g2
Ntp4957
Rp4958
(dp4959
g18
F0.5
sg19
I1062
sg20
g0
(g21
g22
(dp4960
I00
I1045
sI01
I17
stp4961
Rp4962
(dp4963
g19
I1062
sg27
Nsg28
(lp4964
(I00
I1045
tp4965
a(I01
I17
tp4966
asg32
Nsbsg33
I3
sg34
F1063.5
sbs(g9
S'contains(return)'
p4967
tp4968
g0
(g14
g2
Ntp4969
Rp4970
(dp4971
g18
F0.5
sg19
I1062
sg20
g0
(g21
g22
(dp4972
I00
I1027
sI01
I35
stp4973
Rp4974
(dp4975
g19
I1062
sg27
Nsg28
(lp4976
(I00
I1027
tp4977
a(I01
I35
tp4978
asg32
Nsbsg33
I3
sg34
F1063.5
sbs(g9
S'contains(founder)'
p4979
tp4980
g0
(g14
g2
Ntp4981
Rp4982
(dp4983
g18
F0.5
sg19
I1062
sg20
g0
(g21
g22
(dp4984
I00
I1043
sI01
I19
stp4985
Rp4986
(dp4987
g19
I1062
sg27
Nsg28
(lp4988
(I00
I1043
tp4989
a(I01
I19
tp4990
asg32
Nsbsg33
I3
sg34
F1063.5
sbs(g8
S'contains(reach)'
p4991
tp4992
g0
(g14
g2
Ntp4993
Rp4994
(dp4995
g18
F0.5
sg19
I1062
sg20
g0
(g21
g22
(dp4996
I00
I1039
sI01
I23
stp4997
Rp4998
(dp4999
g19
I1062
sg27
Nsg28
(lp5000
(I00
I1039
tp5001
a(I01
I23
tp5002
asg32
Nsbsg33
I3
sg34
F1063.5
sbs(g9
S'contains(hit)'
p5003
tp5004
g0
(g14
g2
Ntp5005
Rp5006
(dp5007
g18
F0.5
sg19
I1062
sg20
g0
(g21
g22
(dp5008
I00
I1034
sI01
I28
stp5009
Rp5010
(dp5011
g19
I1062
sg27
Nsg28
(lp5012
(I00
I1034
tp5013
a(I01
I28
tp5014
asg32
Nsbsg33
I3
sg34
F1063.5
sbs(g9
S'contains(tv)'
p5015
tp5016
g0
(g14
g2
Ntp5017
Rp5018
(dp5019
g18
F0.5
sg19
I1062
sg20
g0
(g21
g22
(dp5020
I00
I1051
sI01
I11
stp5021
Rp5022
(dp5023
g19
I1062
sg27
Nsg28
(lp5024
(I00
I1051
tp5025
a(I01
I11
tp5026
asg32
Nsbsg33
I3
sg34
F1063.5
sbs(g9
S'contains(home)'
p5027
tp5028
g0
(g14
g2
Ntp5029
Rp5030
(dp5031
g18
F0.5
sg19
I1062
sg20
g0
(g21
g22
(dp5032
I00
I1043
sI01
I19
stp5033
Rp5034
(dp5035
g19
I1062
sg27
Nsg28
(lp5036
(I00
I1043
tp5037
a(I01
I19
tp5038
asg32
Nsbsg33
I3
sg34
F1063.5
sbs(g8
S'contains(fall)'
p5039
tp5040
g0
(g14
g2
Ntp5041
Rp5042
(dp5043
g18
F0.5
sg19
I1062
sg20
g0
(g21
g22
(dp5044
I00
I1014
sI01
I48
stp5045
Rp5046
(dp5047
g19
I1062
sg27
Nsg28
(lp5048
(I00
I1014
tp5049
a(I01
I48
tp5050
asg32
Nsbsg33
I3
sg34
F1063.5
sbs(g8
S'contains(move)'
p5051
tp5052
g0
(g14
g2
Ntp5053
Rp5054
(dp5055
g18
F0.5
sg19
I1062
sg20
g0
(g21
g22
(dp5056
I00
I1028
sI01
I34
stp5057
Rp5058
(dp5059
g19
I1062
sg27
Nsg28
(lp5060
(I00
I1028
tp5061
a(I01
I34
tp5062
asg32
Nsbsg33
I3
sg34
F1063.5
sbs(g9
S'contains(point)'
p5063
tp5064
g0
(g14
g2
Ntp5065
Rp5066
(dp5067
g18
F0.5
sg19
I1062
sg20
g0
(g21
g22
(dp5068
I00
I1023
sI01
I39
stp5069
Rp5070
(dp5071
g19
I1062
sg27
Nsg28
(lp5072
(I00
I1023
tp5073
a(I01
I39
tp5074
asg32
Nsbsg33
I3
sg34
F1063.5
sbs(g8
S'contains(shift)'
p5075
tp5076
g0
(g14
g2
Ntp5077
Rp5078
(dp5079
g18
F0.5
sg19
I1062
sg20
g0
(g21
g22
(dp5080
I00
I1044
sI01
I18
stp5081
Rp5082
(dp5083
g19
I1062
sg27
Nsg28
(lp5084
(I00
I1044
tp5085
a(I01
I18
tp5086
asg32
Nsbsg33
I3
sg34
F1063.5
sbs(g9
S'contains(line)'
p5087
tp5088
g0
(g14
g2
Ntp5089
Rp5090
(dp5091
g18
F0.5
sg19
I1062
sg20
g0
(g21
g22
(dp5092
I00
I1048
sI01
I14
stp5093
Rp5094
(dp5095
g19
I1062
sg27
Nsg28
(lp5096
(I00
I1048
tp5097
a(I01
I14
tp5098
asg32
Nsbsg33
I3
sg34
F1063.5
sbs(g8
S'contains(give)'
p5099
tp5100
g0
(g14
g2
Ntp5101
Rp5102
(dp5103
g18
F0.5
sg19
I1062
sg20
g0
(g21
g22
(dp5104
I00
I1024
sI01
I38
stp5105
Rp5106
(dp5107
g19
I1062
sg27
Nsg28
(lp5108
(I00
I1024
tp5109
a(I01
I38
tp5110
asg32
Nsbsg33
I3
sg34
F1063.5
sbs(g8
S'contains(advertising)'
p5111
tp5112
g0
(g14
g2
Ntp5113
Rp5114
(dp5115
g18
F0.5
sg19
I1062
sg20
g0
(g21
g22
(dp5116
I00
I1044
sI01
I18
stp5117
Rp5118
(dp5119
g19
I1062
sg27
Nsg28
(lp5120
(I00
I1044
tp5121
a(I01
I18
tp5122
asg32
Nsbsg33
I3
sg34
F1063.5
sbs(g8
S'contains(news)'
p5123
tp5124
g0
(g14
g2
Ntp5125
Rp5126
(dp5127
g18
F0.5
sg19
I1062
sg20
g0
(g21
g22
(dp5128
I00
I1048
sI01
I14
stp5129
Rp5130
(dp5131
g19
I1062
sg27
Nsg28
(lp5132
(I00
I1048
tp5133
a(I01
I14
tp5134
asg32
Nsbsg33
I3
sg34
F1063.5
sbs(g8
S'contains(law)'
p5135
tp5136
g0
(g14
g2
Ntp5137
Rp5138
(dp5139
g18
F0.5
sg19
I1062
sg20
g0
(g21
g22
(dp5140
I00
I1042
sI01
I20
stp5141
Rp5142
(dp5143
g19
I1062
sg27
Nsg28
(lp5144
(I00
I1042
tp5145
a(I01
I20
tp5146
asg32
Nsbsg33
I3
sg34
F1063.5
sbs(g8
S'contains(create)'
p5147
tp5148
g0
(g14
g2
Ntp5149
Rp5150
(dp5151
g18
F0.5
sg19
I1062
sg20
g0
(g21
g22
(dp5152
I00
I1049
sI01
I13
stp5153
Rp5154
(dp5155
g19
I1062
sg27
Nsg28
(lp5156
(I00
I1049
tp5157
a(I01
I13
tp5158
asg32
Nsbsg33
I3
sg34
F1063.5
sbs(g8
S'contains(profit)'
p5159
tp5160
g0
(g14
g2
Ntp5161
Rp5162
(dp5163
g18
F0.5
sg19
I1062
sg20
g0
(g21
g22
(dp5164
I00
I1021
sI01
I41
stp5165
Rp5166
(dp5167
g19
I1062
sg27
Nsg28
(lp5168
(I00
I1021
tp5169
a(I01
I41
tp5170
asg32
Nsbsg33
I3
sg34
F1063.5
sbs(g9
S'contains(phone)'
p5171
tp5172
g0
(g14
g2
Ntp5173
Rp5174
(dp5175
g18
F0.5
sg19
I1062
sg20
g0
(g21
g22
(dp5176
I00
I1043
sI01
I19
stp5177
Rp5178
(dp5179
g19
I1062
sg27
Nsg28
(lp5180
(I00
I1043
tp5181
a(I01
I19
tp5182
asg32
Nsbsg33
I3
sg34
F1063.5
sbs(g8
S'contains(concern)'
p5183
tp5184
g0
(g14
g2
Ntp5185
Rp5186
(dp5187
g18
F0.5
sg19
I1062
sg20
g0
(g21
g22
(dp5188
I00
I1028
sI01
I34
stp5189
Rp5190
(dp5191
g19
I1062
sg27
Nsg28
(lp5192
(I00
I1028
tp5193
a(I01
I34
tp5194
asg32
Nsbsg33
I3
sg34
F1063.5
sbs(g9
S'contains(begin)'
p5195
tp5196
g0
(g14
g2
Ntp5197
Rp5198
(dp5199
g18
F0.5
sg19
I1062
sg20
g0
(g21
g22
(dp5200
I00
I1046
sI01
I16
stp5201
Rp5202
(dp5203
g19
I1062
sg27
Nsg28
(lp5204
(I00
I1046
tp5205
a(I01
I16
tp5206
asg32
Nsbsg33
I3
sg34
F1063.5
sbs(g8
S'contains(partner)'
p5207
tp5208
g0
(g14
g2
Ntp5209
Rp5210
(dp5211
g18
F0.5
sg19
I1062
sg20
g0
(g21
g22
(dp5212
I00
I1049
sI01
I13
stp5213
Rp5214
(dp5215
g19
I1062
sg27
Nsg28
(lp5216
(I00
I1049
tp5217
a(I01
I13
tp5218
asg32
Nsbsg33
I3
sg34
F1063.5
sbs(g9
S'contains(bond)'
p5219
tp5220
g0
(g14
g2
Ntp5221
Rp5222
(dp5223
g18
F0.5
sg19
I1062
sg20
g0
(g21
g22
(dp5224
I00
I1040
sI01
I22
stp5225
Rp5226
(dp5227
g19
I1062
sg27
Nsg28
(lp5228
(I00
I1040
tp5229
a(I01
I22
tp5230
asg32
Nsbsg33
I3
sg34
F1063.5
sbs(g9
S'contains(merrill)'
p5231
tp5232
g0
(g14
g2
Ntp5233
Rp5234
(dp5235
g18
F0.5
sg19
I1062
sg20
g0
(g21
g22
(dp5236
I00
I1050
sI01
I12
stp5237
Rp5238
(dp5239
g19
I1062
sg27
Nsg28
(lp5240
(I00
I1050
tp5241
a(I01
I12
tp5242
asg32
Nsbsg33
I3
sg34
F1063.5
sbs(g8
S'contains(cut)'
p5243
tp5244
g0
(g14
g2
Ntp5245
Rp5246
(dp5247
g18
F0.5
sg19
I1062
sg20
g0
(g21
g22
(dp5248
I00
I1037
sI01
I25
stp5249
Rp5250
(dp5251
g19
I1062
sg27
Nsg28
(lp5252
(I00
I1037
tp5253
a(I01
I25
tp5254
asg32
Nsbsg33
I3
sg34
F1063.5
sbs(g9
S'contains(tablet)'
p5255
tp5256
g0
(g14
g2
Ntp5257
Rp5258
(dp5259
g18
F0.5
sg19
I1062
sg20
g0
(g21
g22
(dp5260
I00
I1035
sI01
I27
stp5261
Rp5262
(dp5263
g19
I1062
sg27
Nsg28
(lp5264
(I00
I1035
tp5265
a(I01
I27
tp5266
asg32
Nsbsg33
I3
sg34
F1063.5
sbs(g9
S'contains(investigation)'
p5267
tp5268
g0
(g14
g2
Ntp5269
Rp5270
(dp5271
g18
F0.5
sg19
I1062
sg20
g0
(g21
g22
(dp5272
I00
I1045
sI01
I17
stp5273
Rp5274
(dp5275
g19
I1062
sg27
Nsg28
(lp5276
(I00
I1045
tp5277
a(I01
I17
tp5278
asg32
Nsbsg33
I3
sg34
F1063.5
sbs(g8
S'contains(margin)'
p5279
tp5280
g0
(g14
g2
Ntp5281
Rp5282
(dp5283
g18
F0.5
sg19
I1062
sg20
g0
(g21
g22
(dp5284
I00
I1043
sI01
I19
stp5285
Rp5286
(dp5287
g19
I1062
sg27
Nsg28
(lp5288
(I00
I1043
tp5289
a(I01
I19
tp5290
asg32
Nsbsg33
I3
sg34
F1063.5
sbs(g8
S'contains(user)'
p5291
tp5292
g0
(g14
g2
Ntp5293
Rp5294
(dp5295
g18
F0.5
sg19
I1062
sg20
g0
(g21
g22
(dp5296
I00
I1023
sI01
I39
stp5297
Rp5298
(dp5299
g19
I1062
sg27
Nsg28
(lp5300
(I00
I1023
tp5301
a(I01
I39
tp5302
asg32
Nsbsg33
I3
sg34
F1063.5
sbs(g8
S'contains(performance)'
p5303
tp5304
g0
(g14
g2
Ntp5305
Rp5306
(dp5307
g18
F0.5
sg19
I1062
sg20
g0
(g21
g22
(dp5308
I00
I1051
sI01
I11
stp5309
Rp5310
(dp5311
g19
I1062
sg27
Nsg28
(lp5312
(I00
I1051
tp5313
a(I01
I11
tp5314
asg32
Nsbsg33
I3
sg34
F1063.5
sbs(g8
S'contains(grow)'
p5315
tp5316
g0
(g14
g2
Ntp5317
Rp5318
(dp5319
g18
F0.5
sg19
I1062
sg20
g0
(g21
g22
(dp5320
I00
I1049
sI01
I13
stp5321
Rp5322
(dp5323
g19
I1062
sg27
Nsg28
(lp5324
(I00
I1049
tp5325
a(I01
I13
tp5326
asg32
Nsbsg33
I3
sg34
F1063.5
sbs(g9
S'contains(need)'
p5327
tp5328
g0
(g14
g2
Ntp5329
Rp5330
(dp5331
g18
F0.5
sg19
I1062
sg20
g0
(g21
g22
(dp5332
I00
I1039
sI01
I23
stp5333
Rp5334
(dp5335
g19
I1062
sg27
Nsg28
(lp5336
(I00
I1039
tp5337
a(I01
I23
tp5338
asg32
Nsbsg33
I3
sg34
F1063.5
sbs(g8
S'contains(problem)'
p5339
tp5340
g0
(g14
g2
Ntp5341
Rp5342
(dp5343
g18
F0.5
sg19
I1062
sg20
g0
(g21
g22
(dp5344
I00
I1043
sI01
I19
stp5345
Rp5346
(dp5347
g19
I1062
sg27
Nsg28
(lp5348
(I00
I1043
tp5349
a(I01
I19
tp5350
asg32
Nsbsg33
I3
sg34
F1063.5
sbs(g9
S'contains(growth)'
p5351
tp5352
g0
(g14
g2
Ntp5353
Rp5354
(dp5355
g18
F0.5
sg19
I1062
sg20
g0
(g21
g22
(dp5356
I00
I1027
sI01
I35
stp5357
Rp5358
(dp5359
g19
I1062
sg27
Nsg28
(lp5360
(I00
I1027
tp5361
a(I01
I35
tp5362
asg32
Nsbsg33
I3
sg34
F1063.5
sbs(g8
S'contains(product)'
p5363
tp5364
g0
(g14
g2
Ntp5365
Rp5366
(dp5367
g18
F0.5
sg19
I1062
sg20
g0
(g21
g22
(dp5368
I00
I1027
sI01
I35
stp5369
Rp5370
(dp5371
g19
I1062
sg27
Nsg28
(lp5372
(I00
I1027
tp5373
a(I01
I35
tp5374
asg32
Nsbsg33
I3
sg34
F1063.5
sbs(g8
S'contains(receive)'
p5375
tp5376
g0
(g14
g2
Ntp5377
Rp5378
(dp5379
g18
F0.5
sg19
I1062
sg20
g0
(g21
g22
(dp5380
I00
I1048
sI01
I14
stp5381
Rp5382
(dp5383
g19
I1062
sg27
Nsg28
(lp5384
(I00
I1048
tp5385
a(I01
I14
tp5386
asg32
Nsbsg33
I3
sg34
F1063.5
sbs(g9
S'contains(power)'
p5387
tp5388
g0
(g14
g2
Ntp5389
Rp5390
(dp5391
g18
F0.5
sg19
I1062
sg20
g0
(g21
g22
(dp5392
I00
I1042
sI01
I20
stp5393
Rp5394
(dp5395
g19
I1062
sg27
Nsg28
(lp5396
(I00
I1042
tp5397
a(I01
I20
tp5398
asg32
Nsbsg33
I3
sg34
F1063.5
sbs(g8
S'contains(record)'
p5399
tp5400
g0
(g14
g2
Ntp5401
Rp5402
(dp5403
g18
F0.5
sg19
I1062
sg20
g0
(g21
g22
(dp5404
I00
I1043
sI01
I19
stp5405
Rp5406
(dp5407
g19
I1062
sg27
Nsg28
(lp5408
(I00
I1043
tp5409
a(I01
I19
tp5410
asg32
Nsbsg33
I3
sg34
F1063.5
sbs(g8
S'contains(accuse)'
p5411
tp5412
g0
(g14
g2
Ntp5413
Rp5414
(dp5415
g18
F0.5
sg19
I1062
sg20
g0
(g21
g22
(dp5416
I00
I1042
sI01
I20
stp5417
Rp5418
(dp5419
g19
I1062
sg27
Nsg28
(lp5420
(I00
I1042
tp5421
a(I01
I20
tp5422
asg32
Nsbsg33
I3
sg34
F1063.5
sbs(g9
S'contains(device)'
p5423
tp5424
g0
(g14
g2
Ntp5425
Rp5426
(dp5427
g18
F0.5
sg19
I1062
sg20
g0
(g21
g22
(dp5428
I00
I1020
sI01
I42
stp5429
Rp5430
(dp5431
g19
I1062
sg27
Nsg28
(lp5432
(I00
I1020
tp5433
a(I01
I42
tp5434
asg32
Nsbsg33
I3
sg34
F1063.5
sbs(g8
S'contains(china)'
p5435
tp5436
g0
(g14
g2
Ntp5437
Rp5438
(dp5439
g18
F0.5
sg19
I1062
sg20
g0
(g21
g22
(dp5440
I00
I1044
sI01
I18
stp5441
Rp5442
(dp5443
g19
I1062
sg27
Nsg28
(lp5444
(I00
I1044
tp5445
a(I01
I18
tp5446
asg32
Nsbsg33
I3
sg34
F1063.5
sbs(g9
S'contains(order)'
p5447
tp5448
g0
(g14
g2
Ntp5449
Rp5450
(dp5451
g18
F0.5
sg19
I1062
sg20
g0
(g21
g22
(dp5452
I00
I1053
sI01
I9
stp5453
Rp5454
(dp5455
g19
I1062
sg27
Nsg28
(lp5456
(I00
I1053
tp5457
a(I01
I9
tp5458
asg32
Nsbsg33
I3
sg34
F1063.5
sbs(g8
S'contains(try)'
p5459
tp5460
g0
(g14
g2
Ntp5461
Rp5462
(dp5463
g18
F0.5
sg19
I1062
sg20
g0
(g21
g22
(dp5464
I00
I1044
sI01
I18
stp5465
Rp5466
(dp5467
g19
I1062
sg27
Nsg28
(lp5468
(I00
I1044
tp5469
a(I01
I18
tp5470
asg32
Nsbsg33
I3
sg34
F1063.5
sbs(g9
S'contains(privacy)'
p5471
tp5472
g0
(g14
g2
Ntp5473
Rp5474
(dp5475
g18
F0.5
sg19
I1062
sg20
g0
(g21
g22
(dp5476
I00
I1051
sI01
I11
stp5477
Rp5478
(dp5479
g19
I1062
sg27
Nsg28
(lp5480
(I00
I1051
tp5481
a(I01
I11
tp5482
asg32
Nsbsg33
I3
sg34
F1063.5
sbs(g9
S'contains(help)'
p5483
tp5484
g0
(g14
g2
Ntp5485
Rp5486
(dp5487
g18
F0.5
sg19
I1062
sg20
g0
(g21
g22
(dp5488
I00
I1018
sI01
I44
stp5489
Rp5490
(dp5491
g19
I1062
sg27
Nsg28
(lp5492
(I00
I1018
tp5493
a(I01
I44
tp5494
asg32
Nsbsg33
I3
sg34
F1063.5
sbs(g8
S'contains(push)'
p5495
tp5496
g0
(g14
g2
Ntp5497
Rp5498
(dp5499
g18
F0.5
sg19
I1062
sg20
g0
(g21
g22
(dp5500
I00
I1042
sI01
I20
stp5501
Rp5502
(dp5503
g19
I1062
sg27
Nsg28
(lp5504
(I00
I1042
tp5505
a(I01
I20
tp5506
asg32
Nsbsg33
I3
sg34
F1063.5
sbs(g9
S'contains(income)'
p5507
tp5508
g0
(g14
g2
Ntp5509
Rp5510
(dp5511
g18
F0.5
sg19
I1062
sg20
g0
(g21
g22
(dp5512
I00
I1050
sI01
I12
stp5513
Rp5514
(dp5515
g19
I1062
sg27
Nsg28
(lp5516
(I00
I1050
tp5517
a(I01
I12
tp5518
asg32
Nsbsg33
I3
sg34
F1063.5
sbs(g8
S'contains(pressure)'
p5519
tp5520
g0
(g14
g2
Ntp5521
Rp5522
(dp5523
g18
F0.5
sg19
I1062
sg20
g0
(g21
g22
(dp5524
I00
I1046
sI01
I16
stp5525
Rp5526
(dp5527
g19
I1062
sg27
Nsg28
(lp5528
(I00
I1046
tp5529
a(I01
I16
tp5530
asg32
Nsbsg33
I3
sg34
F1063.5
sbs(g9
S'contains(lose)'
p5531
tp5532
g0
(g14
g2
Ntp5533
Rp5534
(dp5535
g18
F0.5
sg19
I1062
sg20
g0
(g21
g22
(dp5536
I00
I1046
sI01
I16
stp5537
Rp5538
(dp5539
g19
I1062
sg27
Nsg28
(lp5540
(I00
I1046
tp5541
a(I01
I16
tp5542
asg32
Nsbsg33
I3
sg34
F1063.5
sbs(g8
S'contains(write)'
p5543
tp5544
g0
(g14
g2
Ntp5545
Rp5546
(dp5547
g18
F0.5
sg19
I1062
sg20
g0
(g21
g22
(dp5548
I00
I1039
sI01
I23
stp5549
Rp5550
(dp5551
g19
I1062
sg27
Nsg28
(lp5552
(I00
I1039
tp5553
a(I01
I23
tp5554
asg32
Nsbsg33
I3
sg34
F1063.5
sbs(g9
S'contains(user)'
p5555
tp5556
g0
(g14
g2
Ntp5557
Rp5558
(dp5559
g18
F0.5
sg19
I1062
sg20
g0
(g21
g22
(dp5560
I00
I1022
sI01
I40
stp5561
Rp5562
(dp5563
g19
I1062
sg27
Nsg28
(lp5564
(I00
I1022
tp5565
a(I01
I40
tp5566
asg32
Nsbsg33
I3
sg34
F1063.5
sbs(g8
S'contains(twitter)'
p5567
tp5568
g0
(g14
g2
Ntp5569
Rp5570
(dp5571
g18
F0.5
sg19
I1062
sg20
g0
(g21
g22
(dp5572
I00
I1048
sI01
I14
stp5573
Rp5574
(dp5575
g19
I1062
sg27
Nsg28
(lp5576
(I00
I1048
tp5577
a(I01
I14
tp5578
asg32
Nsbsg33
I3
sg34
F1063.5
sbs(g8
S'contains(per)'
p5579
tp5580
g0
(g14
g2
Ntp5581
Rp5582
(dp5583
g18
F0.5
sg19
I1062
sg20
g0
(g21
g22
(dp5584
I00
I1048
sI01
I14
stp5585
Rp5586
(dp5587
g19
I1062
sg27
Nsg28
(lp5588
(I00
I1048
tp5589
a(I01
I14
tp5590
asg32
Nsbsg33
I3
sg34
F1063.5
sbs(g8
S'contains(meeting)'
p5591
tp5592
g0
(g14
g2
Ntp5593
Rp5594
(dp5595
g18
F0.5
sg19
I1062
sg20
g0
(g21
g22
(dp5596
I00
I1048
sI01
I14
stp5597
Rp5598
(dp5599
g19
I1062
sg27
Nsg28
(lp5600
(I00
I1048
tp5601
a(I01
I14
tp5602
asg32
Nsbsg33
I3
sg34
F1063.5
sbs(g8
S'contains(agency)'
p5603
tp5604
g0
(g14
g2
Ntp5605
Rp5606
(dp5607
g18
F0.5
sg19
I1062
sg20
g0
(g21
g22
(dp5608
I00
I1045
sI01
I17
stp5609
Rp5610
(dp5611
g19
I1062
sg27
Nsg28
(lp5612
(I00
I1045
tp5613
a(I01
I17
tp5614
asg32
Nsbsg33
I3
sg34
F1063.5
sbs(g8
S'contains(case)'
p5615
tp5616
g0
(g14
g2
Ntp5617
Rp5618
(dp5619
g18
F0.5
sg19
I1062
sg20
g0
(g21
g22
(dp5620
I00
I1037
sI01
I25
stp5621
Rp5622
(dp5623
g19
I1062
sg27
Nsg28
(lp5624
(I00
I1037
tp5625
a(I01
I25
tp5626
asg32
Nsbsg33
I3
sg34
F1063.5
sbs(g9
S'contains(rival)'
p5627
tp5628
g0
(g14
g2
Ntp5629
Rp5630
(dp5631
g18
F0.5
sg19
I1062
sg20
g0
(g21
g22
(dp5632
I00
I1031
sI01
I31
stp5633
Rp5634
(dp5635
g19
I1062
sg27
Nsg28
(lp5636
(I00
I1031
tp5637
a(I01
I31
tp5638
asg32
Nsbsg33
I3
sg34
F1063.5
sbs(g8
S'contains(whale)'
p5639
tp5640
g0
(g14
g2
Ntp5641
Rp5642
(dp5643
g18
F0.5
sg19
I1062
sg20
g0
(g21
g22
(dp5644
I00
I1035
sI01
I27
stp5645
Rp5646
(dp5647
g19
I1062
sg27
Nsg28
(lp5648
(I00
I1035
tp5649
a(I01
I27
tp5650
asg32
Nsbsg33
I3
sg34
F1063.5
sbs(g8
S'contains(citigroup)'
p5651
tp5652
g0
(g14
g2
Ntp5653
Rp5654
(dp5655
g18
F0.5
sg19
I1062
sg20
g0
(g21
g22
(dp5656
I00
I1039
sI01
I23
stp5657
Rp5658
(dp5659
g19
I1062
sg27
Nsg28
(lp5660
(I00
I1039
tp5661
a(I01
I23
tp5662
asg32
Nsbsg33
I3
sg34
F1063.5
sbs(g9
S'contains(chief)'
p5663
tp5664
g0
(g14
g2
Ntp5665
Rp5666
(dp5667
g18
F0.5
sg19
I1062
sg20
g0
(g21
g22
(dp5668
I00
I1011
sI01
I51
stp5669
Rp5670
(dp5671
g19
I1062
sg27
Nsg28
(lp5672
(I00
I1011
tp5673
a(I01
I51
tp5674
asg32
Nsbsg33
I3
sg34
F1063.5
sbs(g8
S'contains(fine)'
p5675
tp5676
g0
(g14
g2
Ntp5677
Rp5678
(dp5679
g18
F0.5
sg19
I1062
sg20
g0
(g21
g22
(dp5680
I00
I1041
sI01
I21
stp5681
Rp5682
(dp5683
g19
I1062
sg27
Nsg28
(lp5684
(I00
I1041
tp5685
a(I01
I21
tp5686
asg32
Nsbsg33
I3
sg34
F1063.5
sbs(g9
S'contains(result)'
p5687
tp5688
g0
(g14
g2
Ntp5689
Rp5690
(dp5691
g18
F0.5
sg19
I1062
sg20
g0
(g21
g22
(dp5692
I00
I999
sI01
I63
stp5693
Rp5694
(dp5695
g19
I1062
sg27
Nsg28
(lp5696
(I00
I999
tp5697
a(I01
I63
tp5698
asg32
Nsbsg33
I3
sg34
F1063.5
sbs(g8
S'contains(tablet)'
p5699
tp5700
g0
(g14
g2
Ntp5701
Rp5702
(dp5703
g18
F0.5
sg19
I1062
sg20
g0
(g21
g22
(dp5704
I00
I1045
sI01
I17
stp5705
Rp5706
(dp5707
g19
I1062
sg27
Nsg28
(lp5708
(I00
I1045
tp5709
a(I01
I17
tp5710
asg32
Nsbsg33
I3
sg34
F1063.5
sbs(g9
S'contains(revenue)'
p5711
tp5712
g0
(g14
g2
Ntp5713
Rp5714
(dp5715
g18
F0.5
sg19
I1062
sg20
g0
(g21
g22
(dp5716
I00
I996
sI01
I66
stp5717
Rp5718
(dp5719
g19
I1062
sg27
Nsg28
(lp5720
(I00
I996
tp5721
a(I01
I66
tp5722
asg32
Nsbsg33
I3
sg34
F1063.5
sbs(g8
S'contains(go)'
p5723
tp5724
g0
(g14
g2
Ntp5725
Rp5726
(dp5727
g18
F0.5
sg19
I1062
sg20
g0
(g21
g22
(dp5728
I00
I1038
sI01
I24
stp5729
Rp5730
(dp5731
g19
I1062
sg27
Nsg28
(lp5732
(I00
I1038
tp5733
a(I01
I24
tp5734
asg32
Nsbsg33
I3
sg34
F1063.5
sbs(g8
S'contains(hedge)'
p5735
tp5736
g0
(g14
g2
Ntp5737
Rp5738
(dp5739
g18
F0.5
sg19
I1062
sg20
g0
(g21
g22
(dp5740
I00
I1046
sI01
I16
stp5741
Rp5742
(dp5743
g19
I1062
sg27
Nsg28
(lp5744
(I00
I1046
tp5745
a(I01
I16
tp5746
asg32
Nsbsg33
I3
sg34
F1063.5
sbs(g9
S'contains(apps)'
p5747
tp5748
g0
(g14
g2
Ntp5749
Rp5750
(dp5751
g18
F0.5
sg19
I1062
sg20
g0
(g21
g22
(dp5752
I00
I1049
sI01
I13
stp5753
Rp5754
(dp5755
g19
I1062
sg27
Nsg28
(lp5756
(I00
I1049
tp5757
a(I01
I13
tp5758
asg32
Nsbsg33
I3
sg34
F1063.5
sbs(g8
S'contains(maker)'
p5759
tp5760
g0
(g14
g2
Ntp5761
Rp5762
(dp5763
g18
F0.5
sg19
I1062
sg20
g0
(g21
g22
(dp5764
I00
I1043
sI01
I19
stp5765
Rp5766
(dp5767
g19
I1062
sg27
Nsg28
(lp5768
(I00
I1043
tp5769
a(I01
I19
tp5770
asg32
Nsbsg33
I3
sg34
F1063.5
sbs(g8
S'contains(analyst)'
p5771
tp5772
g0
(g14
g2
Ntp5773
Rp5774
(dp5775
g18
F0.5
sg19
I1062
sg20
g0
(g21
g22
(dp5776
I00
I1017
sI01
I45
stp5777
Rp5778
(dp5779
g19
I1062
sg27
Nsg28
(lp5780
(I00
I1017
tp5781
a(I01
I45
tp5782
asg32
Nsbsg33
I3
sg34
F1063.5
sbs(g8
S'contains(hardware)'
p5783
tp5784
g0
(g14
g2
Ntp5785
Rp5786
(dp5787
g18
F0.5
sg19
I1062
sg20
g0
(g21
g22
(dp5788
I00
I1053
sI01
I9
stp5789
Rp5790
(dp5791
g19
I1062
sg27
Nsg28
(lp5792
(I00
I1053
tp5793
a(I01
I9
tp5794
asg32
Nsbsg33
I3
sg34
F1063.5
sbs(g9
S'contains(look)'
p5795
tp5796
g0
(g14
g2
Ntp5797
Rp5798
(dp5799
g18
F0.5
sg19
I1062
sg20
g0
(g21
g22
(dp5800
I00
I1034
sI01
I28
stp5801
Rp5802
(dp5803
g19
I1062
sg27
Nsg28
(lp5804
(I00
I1034
tp5805
a(I01
I28
tp5806
asg32
Nsbsg33
I3
sg34
F1063.5
sbs(g8
S'contains(talk)'
p5807
tp5808
g0
(g14
g2
Ntp5809
Rp5810
(dp5811
g18
F0.5
sg19
I1062
sg20
g0
(g21
g22
(dp5812
I00
I1051
sI01
I11
stp5813
Rp5814
(dp5815
g19
I1062
sg27
Nsg28
(lp5816
(I00
I1051
tp5817
a(I01
I11
tp5818
asg32
Nsbsg33
I3
sg34
F1063.5
sbs(g8
S'contains(trade)'
p5819
tp5820
g0
(g14
g2
Ntp5821
Rp5822
(dp5823
g18
F0.5
sg19
I1062
sg20
g0
(g21
g22
(dp5824
I00
I1014
sI01
I48
stp5825
Rp5826
(dp5827
g19
I1062
sg27
Nsg28
(lp5828
(I00
I1014
tp5829
a(I01
I48
tp5830
asg32
Nsbsg33
I3
sg34
F1063.5
sbs(g8
S'contains(decision)'
p5831
tp5832
g0
(g14
g2
Ntp5833
Rp5834
(dp5835
g18
F0.5
sg19
I1062
sg20
g0
(g21
g22
(dp5836
I00
I1047
sI01
I15
stp5837
Rp5838
(dp5839
g19
I1062
sg27
Nsg28
(lp5840
(I00
I1047
tp5841
a(I01
I15
tp5842
asg32
Nsbsg33
I3
sg34
F1063.5
sbs(g9
S'contains(offer)'
p5843
tp5844
g0
(g14
g2
Ntp5845
Rp5846
(dp5847
g18
F0.5
sg19
I1062
sg20
g0
(g21
g22
(dp5848
I00
I1043
sI01
I19
stp5849
Rp5850
(dp5851
g19
I1062
sg27
Nsg28
(lp5852
(I00
I1043
tp5853
a(I01
I19
tp5854
asg32
Nsbsg33
I3
sg34
F1063.5
sbs(g8
S'contains(unit)'
p5855
tp5856
g0
(g14
g2
Ntp5857
Rp5858
(dp5859
g18
F0.5
sg19
I1062
sg20
g0
(g21
g22
(dp5860
I00
I1051
sI01
I11
stp5861
Rp5862
(dp5863
g19
I1062
sg27
Nsg28
(lp5864
(I00
I1051
tp5865
a(I01
I11
tp5866
asg32
Nsbsg33
I3
sg34
F1063.5
sbs(g9
S'contains(become)'
p5867
tp5868
g0
(g14
g2
Ntp5869
Rp5870
(dp5871
g18
F0.5
sg19
I1062
sg20
g0
(g21
g22
(dp5872
I00
I1038
sI01
I24
stp5873
Rp5874
(dp5875
g19
I1062
sg27
Nsg28
(lp5876
(I00
I1038
tp5877
a(I01
I24
tp5878
asg32
Nsbsg33
I3
sg34
F1063.5
sbs(g8
S'contains(site)'
p5879
tp5880
g0
(g14
g2
Ntp5881
Rp5882
(dp5883
g18
F0.5
sg19
I1062
sg20
g0
(g21
g22
(dp5884
I00
I1045
sI01
I17
stp5885
Rp5886
(dp5887
g19
I1062
sg27
Nsg28
(lp5888
(I00
I1045
tp5889
a(I01
I17
tp5890
asg32
Nsbsg33
I3
sg34
F1063.5
sbs(g8
S'contains(remain)'
p5891
tp5892
g0
(g14
g2
Ntp5893
Rp5894
(dp5895
g18
F0.5
sg19
I1062
sg20
g0
(g21
g22
(dp5896
I00
I1047
sI01
I15
stp5897
Rp5898
(dp5899
g19
I1062
sg27
Nsg28
(lp5900
(I00
I1047
tp5901
a(I01
I15
tp5902
asg32
Nsbsg33
I3
sg34
F1063.5
sbs(g8
S'contains(court)'
p5903
tp5904
g0
(g14
g2
Ntp5905
Rp5906
(dp5907
g18
F0.5
sg19
I1062
sg20
g0
(g21
g22
(dp5908
I00
I1033
sI01
I29
stp5909
Rp5910
(dp5911
g19
I1062
sg27
Nsg28
(lp5912
(I00
I1033
tp5913
a(I01
I29
tp5914
asg32
Nsbsg33
I3
sg34
F1063.5
sbs(g8
S'contains(publisher)'
p5915
tp5916
g0
(g14
g2
Ntp5917
Rp5918
(dp5919
g18
F0.5
sg19
I1062
sg20
g0
(g21
g22
(dp5920
I00
I1053
sI01
I9
stp5921
Rp5922
(dp5923
g19
I1062
sg27
Nsg28
(lp5924
(I00
I1053
tp5925
a(I01
I9
tp5926
asg32
Nsbsg33
I3
sg34
F1063.5
sbs(g9
S'contains(base)'
p5927
tp5928
g0
(g14
g2
Ntp5929
Rp5930
(dp5931
g18
F0.5
sg19
I1062
sg20
g0
(g21
g22
(dp5932
I00
I1029
sI01
I33
stp5933
Rp5934
(dp5935
g19
I1062
sg27
Nsg28
(lp5936
(I00
I1029
tp5937
a(I01
I33
tp5938
asg32
Nsbsg33
I3
sg34
F1063.5
sbs(g9
S'contains(pay)'
p5939
tp5940
g0
(g14
g2
Ntp5941
Rp5942
(dp5943
g18
F0.5
sg19
I1062
sg20
g0
(g21
g22
(dp5944
I00
I1020
sI01
I42
stp5945
Rp5946
(dp5947
g19
I1062
sg27
Nsg28
(lp5948
(I00
I1020
tp5949
a(I01
I42
tp5950
asg32
Nsbsg33
I3
sg34
F1063.5
sbs(g9
S'contains(official)'
p5951
tp5952
g0
(g14
g2
Ntp5953
Rp5954
(dp5955
g18
F0.5
sg19
I1062
sg20
g0
(g21
g22
(dp5956
I00
I1053
sI01
I9
stp5957
Rp5958
(dp5959
g19
I1062
sg27
Nsg28
(lp5960
(I00
I1053
tp5961
a(I01
I9
tp5962
asg32
Nsbsg33
I3
sg34
F1063.5
sbs(g9
S'contains(problem)'
p5963
tp5964
g0
(g14
g2
Ntp5965
Rp5966
(dp5967
g18
F0.5
sg19
I1062
sg20
g0
(g21
g22
(dp5968
I00
I1050
sI01
I12
stp5969
Rp5970
(dp5971
g19
I1062
sg27
Nsg28
(lp5972
(I00
I1050
tp5973
a(I01
I12
tp5974
asg32
Nsbsg33
I3
sg34
F1063.5
sbs(g9
S'contains(way)'
p5975
tp5976
g0
(g14
g2
Ntp5977
Rp5978
(dp5979
g18
F0.5
sg19
I1062
sg20
g0
(g21
g22
(dp5980
I00
I1026
sI01
I36
stp5981
Rp5982
(dp5983
g19
I1062
sg27
Nsg28
(lp5984
(I00
I1026
tp5985
a(I01
I36
tp5986
asg32
Nsbsg33
I3
sg34
F1063.5
sbs(g8
S'contains(network)'
p5987
tp5988
g0
(g14
g2
Ntp5989
Rp5990
(dp5991
g18
F0.5
sg19
I1062
sg20
g0
(g21
g22
(dp5992
I00
I1049
sI01
I13
stp5993
Rp5994
(dp5995
g19
I1062
sg27
Nsg28
(lp5996
(I00
I1049
tp5997
a(I01
I13
tp5998
asg32
Nsbsg33
I3
sg34
F1063.5
sbs(g8
S'contains(call)'
p5999
tp6000
g0
(g14
g2
Ntp6001
Rp6002
(dp6003
g18
F0.5
sg19
I1062
sg20
g0
(g21
g22
(dp6004
I00
I1027
sI01
I35
stp6005
Rp6006
(dp6007
g19
I1062
sg27
Nsg28
(lp6008
(I00
I1027
tp6009
a(I01
I35
tp6010
asg32
Nsbsg33
I3
sg34
F1063.5
sbs(g9
S'contains(see)'
p6011
tp6012
g0
(g14
g2
Ntp6013
Rp6014
(dp6015
g18
F0.5
sg19
I1062
sg20
g0
(g21
g22
(dp6016
I00
I1032
sI01
I30
stp6017
Rp6018
(dp6019
g19
I1062
sg27
Nsg28
(lp6020
(I00
I1032
tp6021
a(I01
I30
tp6022
asg32
Nsbsg33
I3
sg34
F1063.5
sbs(g9
S'contains(job)'
p6023
tp6024
g0
(g14
g2
Ntp6025
Rp6026
(dp6027
g18
F0.5
sg19
I1062
sg20
g0
(g21
g22
(dp6028
I00
I1036
sI01
I26
stp6029
Rp6030
(dp6031
g19
I1062
sg27
Nsg28
(lp6032
(I00
I1036
tp6033
a(I01
I26
tp6034
asg32
Nsbsg33
I3
sg34
F1063.5
sbs(g8
S'contains(focus)'
p6035
tp6036
g0
(g14
g2
Ntp6037
Rp6038
(dp6039
g18
F0.5
sg19
I1062
sg20
g0
(g21
g22
(dp6040
I00
I1046
sI01
I16
stp6041
Rp6042
(dp6043
g19
I1062
sg27
Nsg28
(lp6044
(I00
I1046
tp6045
a(I01
I16
tp6046
asg32
Nsbsg33
I3
sg34
F1063.5
sbs(g8
S'contains(board)'
p6047
tp6048
g0
(g14
g2
Ntp6049
Rp6050
(dp6051
g18
F0.5
sg19
I1062
sg20
g0
(g21
g22
(dp6052
I00
I1047
sI01
I15
stp6053
Rp6054
(dp6055
g19
I1062
sg27
Nsg28
(lp6056
(I00
I1047
tp6057
a(I01
I15
tp6058
asg32
Nsbsg33
I3
sg34
F1063.5
sbs(g9
S'contains(twitter)'
p6059
tp6060
g0
(g14
g2
Ntp6061
Rp6062
(dp6063
g18
F0.5
sg19
I1062
sg20
g0
(g21
g22
(dp6064
I00
I1051
sI01
I11
stp6065
Rp6066
(dp6067
g19
I1062
sg27
Nsg28
(lp6068
(I00
I1051
tp6069
a(I01
I11
tp6070
asg32
Nsbsg33
I3
sg34
F1063.5
sbs(g8
S'contains(allege)'
p6071
tp6072
g0
(g14
g2
Ntp6073
Rp6074
(dp6075
g18
F0.5
sg19
I1062
sg20
g0
(g21
g22
(dp6076
I00
I1043
sI01
I19
stp6077
Rp6078
(dp6079
g19
I1062
sg27
Nsg28
(lp6080
(I00
I1043
tp6081
a(I01
I19
tp6082
asg32
Nsbsg33
I3
sg34
F1063.5
sbs(g8
S'contains(show)'
p6083
tp6084
g0
(g14
g2
Ntp6085
Rp6086
(dp6087
g18
F0.5
sg19
I1062
sg20
g0
(g21
g22
(dp6088
I00
I1033
sI01
I29
stp6089
Rp6090
(dp6091
g19
I1062
sg27
Nsg28
(lp6092
(I00
I1033
tp6093
a(I01
I29
tp6094
asg32
Nsbsg33
I3
sg34
F1063.5
sbs(g9
S'contains(plan)'
p6095
tp6096
g0
(g14
g2
Ntp6097
Rp6098
(dp6099
g18
F0.5
sg19
I1062
sg20
g0
(g21
g22
(dp6100
I00
I1035
sI01
I27
stp6101
Rp6102
(dp6103
g19
I1062
sg27
Nsg28
(lp6104
(I00
I1035
tp6105
a(I01
I27
tp6106
asg32
Nsbsg33
I3
sg34
F1063.5
sbs(g9
S'contains(exchange)'
p6107
tp6108
g0
(g14
g2
Ntp6109
Rp6110
(dp6111
g18
F0.5
sg19
I1062
sg20
g0
(g21
g22
(dp6112
I00
I1048
sI01
I14
stp6113
Rp6114
(dp6115
g19
I1062
sg27
Nsg28
(lp6116
(I00
I1048
tp6117
a(I01
I14
tp6118
asg32
Nsbsg33
I3
sg34
F1063.5
sbs(g8
S'contains(sell)'
p6119
tp6120
g0
(g14
g2
Ntp6121
Rp6122
(dp6123
g18
F0.5
sg19
I1062
sg20
g0
(g21
g22
(dp6124
I00
I1001
sI01
I61
stp6125
Rp6126
(dp6127
g19
I1062
sg27
Nsg28
(lp6128
(I00
I1001
tp6129
a(I01
I61
tp6130
asg32
Nsbsg33
I3
sg34
F1063.5
sbs(g8
S'contains(people)'
p6131
tp6132
g0
(g14
g2
Ntp6133
Rp6134
(dp6135
g18
F0.5
sg19
I1062
sg20
g0
(g21
g22
(dp6136
I00
I1021
sI01
I41
stp6137
Rp6138
(dp6139
g19
I1062
sg27
Nsg28
(lp6140
(I00
I1021
tp6141
a(I01
I41
tp6142
asg32
Nsbsg33
I3
sg34
F1063.5
sbs(g9
S'contains(emerge)'
p6143
tp6144
g0
(g14
g2
Ntp6145
Rp6146
(dp6147
g18
F0.5
sg19
I1062
sg20
g0
(g21
g22
(dp6148
I00
I1051
sI01
I11
stp6149
Rp6150
(dp6151
g19
I1062
sg27
Nsg28
(lp6152
(I00
I1051
tp6153
a(I01
I11
tp6154
asg32
Nsbsg33
I3
sg34
F1063.5
sbs(g8
S'contains(estimate)'
p6155
tp6156
g0
(g14
g2
Ntp6157
Rp6158
(dp6159
g18
F0.5
sg19
I1062
sg20
g0
(g21
g22
(dp6160
I00
I1043
sI01
I19
stp6161
Rp6162
(dp6163
g19
I1062
sg27
Nsg28
(lp6164
(I00
I1043
tp6165
a(I01
I19
tp6166
asg32
Nsbsg33
I3
sg34
F1063.5
sbs(g9
S'contains(fell)'
p6167
tp6168
g0
(g14
g2
Ntp6169
Rp6170
(dp6171
g18
F0.5
sg19
I1062
sg20
g0
(g21
g22
(dp6172
I00
I1043
sI01
I19
stp6173
Rp6174
(dp6175
g19
I1062
sg27
Nsg28
(lp6176
(I00
I1043
tp6177
a(I01
I19
tp6178
asg32
Nsbsg33
I3
sg34
F1063.5
sbs(g9
S'contains(lead)'
p6179
tp6180
g0
(g14
g2
Ntp6181
Rp6182
(dp6183
g18
F0.5
sg19
I1062
sg20
g0
(g21
g22
(dp6184
I00
I1017
sI01
I45
stp6185
Rp6186
(dp6187
g19
I1062
sg27
Nsg28
(lp6188
(I00
I1017
tp6189
a(I01
I45
tp6190
asg32
Nsbsg33
I3
sg34
F1063.5
sbs(g8
S'contains(crisis)'
p6191
tp6192
g0
(g14
g2
Ntp6193
Rp6194
(dp6195
g18
F0.5
sg19
I1062
sg20
g0
(g21
g22
(dp6196
I00
I1041
sI01
I21
stp6197
Rp6198
(dp6199
g19
I1062
sg27
Nsg28
(lp6200
(I00
I1041
tp6201
a(I01
I21
tp6202
asg32
Nsbsg33
I3
sg34
F1063.5
sbs(g9
S'contains(allow)'
p6203
tp6204
g0
(g14
g2
Ntp6205
Rp6206
(dp6207
g18
F0.5
sg19
I1062
sg20
g0
(g21
g22
(dp6208
I00
I1048
sI01
I14
stp6209
Rp6210
(dp6211
g19
I1062
sg27
Nsg28
(lp6212
(I00
I1048
tp6213
a(I01
I14
tp6214
asg32
Nsbsg33
I3
sg34
F1063.5
sbs(g8
S'contains(jamie)'
p6215
tp6216
g0
(g14
g2
Ntp6217
Rp6218
(dp6219
g18
F0.5
sg19
I1062
sg20
g0
(g21
g22
(dp6220
I00
I1045
sI01
I17
stp6221
Rp6222
(dp6223
g19
I1062
sg27
Nsg28
(lp6224
(I00
I1045
tp6225
a(I01
I17
tp6226
asg32
Nsbsg33
I3
sg34
F1063.5
sbs(g8
S'contains(almunia)'
p6227
tp6228
g0
(g14
g2
Ntp6229
Rp6230
(dp6231
g18
F0.5
sg19
I1062
sg20
g0
(g21
g22
(dp6232
I00
I1053
sI01
I9
stp6233
Rp6234
(dp6235
g19
I1062
sg27
Nsg28
(lp6236
(I00
I1053
tp6237
a(I01
I9
tp6238
asg32
Nsbsg33
I3
sg34
F1063.5
sbs(g9
S'contains(agree)'
p6239
tp6240
g0
(g14
g2
Ntp6241
Rp6242
(dp6243
g18
F0.5
sg19
I1062
sg20
g0
(g21
g22
(dp6244
I00
I1043
sI01
I19
stp6245
Rp6246
(dp6247
g19
I1062
sg27
Nsg28
(lp6248
(I00
I1043
tp6249
a(I01
I19
tp6250
asg32
Nsbsg33
I3
sg34
F1063.5
sbs(g9
S'contains(fine)'
p6251
tp6252
g0
(g14
g2
Ntp6253
Rp6254
(dp6255
g18
F0.5
sg19
I1062
sg20
g0
(g21
g22
(dp6256
I00
I1051
sI01
I11
stp6257
Rp6258
(dp6259
g19
I1062
sg27
Nsg28
(lp6260
(I00
I1051
tp6261
a(I01
I11
tp6262
asg32
Nsbsg33
I3
sg34
F1063.5
sbs(g9
S'contains(asset)'
p6263
tp6264
g0
(g14
g2
Ntp6265
Rp6266
(dp6267
g18
F0.5
sg19
I1062
sg20
g0
(g21
g22
(dp6268
I00
I1044
sI01
I18
stp6269
Rp6270
(dp6271
g19
I1062
sg27
Nsg28
(lp6272
(I00
I1044
tp6273
a(I01
I18
tp6274
asg32
Nsbsg33
I3
sg34
F1063.5
sbs(g9
S'contains(customer)'
p6275
tp6276
g0
(g14
g2
Ntp6277
Rp6278
(dp6279
g18
F0.5
sg19
I1062
sg20
g0
(g21
g22
(dp6280
I00
I1041
sI01
I21
stp6281
Rp6282
(dp6283
g19
I1062
sg27
Nsg28
(lp6284
(I00
I1041
tp6285
a(I01
I21
tp6286
asg32
Nsbsg33
I3
sg34
F1063.5
sbs(g8
S'contains(change)'
p6287
tp6288
g0
(g14
g2
Ntp6289
Rp6290
(dp6291
g18
F0.5
sg19
I1062
sg20
g0
(g21
g22
(dp6292
I00
I1039
sI01
I23
stp6293
Rp6294
(dp6295
g19
I1062
sg27
Nsg28
(lp6296
(I00
I1039
tp6297
a(I01
I23
tp6298
asg32
Nsbsg33
I3
sg34
F1063.5
sbs(g9
S'contains(gain)'
p6299
tp6300
g0
(g14
g2
Ntp6301
Rp6302
(dp6303
g18
F0.5
sg19
I1062
sg20
g0
(g21
g22
(dp6304
I00
I1015
sI01
I47
stp6305
Rp6306
(dp6307
g19
I1062
sg27
Nsg28
(lp6308
(I00
I1015
tp6309
a(I01
I47
tp6310
asg32
Nsbsg33
I3
sg34
F1063.5
sbs(g8
S'contains(state)'
p6311
tp6312
g0
(g14
g2
Ntp6313
Rp6314
(dp6315
g18
F0.5
sg19
I1062
sg20
g0
(g21
g22
(dp6316
I00
I1042
sI01
I20
stp6317
Rp6318
(dp6319
g19
I1062
sg27
Nsg28
(lp6320
(I00
I1042
tp6321
a(I01
I20
tp6322
asg32
Nsbsg33
I3
sg34
F1063.5
sbs(g8
S'contains(drop)'
p6323
tp6324
g0
(g14
g2
Ntp6325
Rp6326
(dp6327
g18
F0.5
sg19
I1062
sg20
g0
(g21
g22
(dp6328
I00
I1025
sI01
I37
stp6329
Rp6330
(dp6331
g19
I1062
sg27
Nsg28
(lp6332
(I00
I1025
tp6333
a(I01
I37
tp6334
asg32
Nsbsg33
I3
sg34
F1063.5
sbs(g8
S'contains(industry)'
p6335
tp6336
g0
(g14
g2
Ntp6337
Rp6338
(dp6339
g18
F0.5
sg19
I1062
sg20
g0
(g21
g22
(dp6340
I00
I1042
sI01
I20
stp6341
Rp6342
(dp6343
g19
I1062
sg27
Nsg28
(lp6344
(I00
I1042
tp6345
a(I01
I20
tp6346
asg32
Nsbsg33
I3
sg34
F1063.5
sbs(g8
S'contains(co)'
p6347
tp6348
g0
(g14
g2
Ntp6349
Rp6350
(dp6351
g18
F0.5
sg19
I1062
sg20
g0
(g21
g22
(dp6352
I00
I1047
sI01
I15
stp6353
Rp6354
(dp6355
g19
I1062
sg27
Nsg28
(lp6356
(I00
I1047
tp6357
a(I01
I15
tp6358
asg32
Nsbsg33
I3
sg34
F1063.5
sbs(g8
S'contains(attack)'
p6359
tp6360
g0
(g14
g2
Ntp6361
Rp6362
(dp6363
g18
F0.5
sg19
I1062
sg20
g0
(g21
g22
(dp6364
I00
I1048
sI01
I14
stp6365
Rp6366
(dp6367
g19
I1062
sg27
Nsg28
(lp6368
(I00
I1048
tp6369
a(I01
I14
tp6370
asg32
Nsbsg33
I3
sg34
F1063.5
sbs(g8
S'contains(research)'
p6371
tp6372
g0
(g14
g2
Ntp6373
Rp6374
(dp6375
g18
F0.5
sg19
I1062
sg20
g0
(g21
g22
(dp6376
I00
I1046
sI01
I16
stp6377
Rp6378
(dp6379
g19
I1062
sg27
Nsg28
(lp6380
(I00
I1046
tp6381
a(I01
I16
tp6382
asg32
Nsbsg33
I3
sg34
F1063.5
sbs(g9
S'contains(firm)'
p6383
tp6384
g0
(g14
g2
Ntp6385
Rp6386
(dp6387
g18
F0.5
sg19
I1062
sg20
g0
(g21
g22
(dp6388
I00
I1045
sI01
I17
stp6389
Rp6390
(dp6391
g19
I1062
sg27
Nsg28
(lp6392
(I00
I1045
tp6393
a(I01
I17
tp6394
asg32
Nsbsg33
I3
sg34
F1063.5
sbs(g8
S'contains(take)'
p6395
tp6396
g0
(g14
g2
Ntp6397
Rp6398
(dp6399
g18
F0.5
sg19
I1062
sg20
g0
(g21
g22
(dp6400
I00
I1002
sI01
I60
stp6401
Rp6402
(dp6403
g19
I1062
sg27
Nsg28
(lp6404
(I00
I1002
tp6405
a(I01
I60
tp6406
asg32
Nsbsg33
I3
sg34
F1063.5
sbs(g8
S'contains(page)'
p6407
tp6408
g0
(g14
g2
Ntp6409
Rp6410
(dp6411
g18
F0.5
sg19
I1062
sg20
g0
(g21
g22
(dp6412
I00
I1039
sI01
I23
stp6413
Rp6414
(dp6415
g19
I1062
sg27
Nsg28
(lp6416
(I00
I1039
tp6417
a(I01
I23
tp6418
asg32
Nsbsg33
I3
sg34
F1063.5
sbs(g9
S'contains(matter)'
p6419
tp6420
g0
(g14
g2
Ntp6421
Rp6422
(dp6423
g18
F0.5
sg19
I1062
sg20
g0
(g21
g22
(dp6424
I00
I1049
sI01
I13
stp6425
Rp6426
(dp6427
g19
I1062
sg27
Nsg28
(lp6428
(I00
I1049
tp6429
a(I01
I13
tp6430
asg32
Nsbsg33
I3
sg34
F1063.5
sbs(g8
S'contains(expect)'
p6431
tp6432
g0
(g14
g2
Ntp6433
Rp6434
(dp6435
g18
F0.5
sg19
I1062
sg20
g0
(g21
g22
(dp6436
I00
I1017
sI01
I45
stp6437
Rp6438
(dp6439
g19
I1062
sg27
Nsg28
(lp6440
(I00
I1017
tp6441
a(I01
I45
tp6442
asg32
Nsbsg33
I3
sg34
F1063.5
sbs(g9
S'contains(list)'
p6443
tp6444
g0
(g14
g2
Ntp6445
Rp6446
(dp6447
g18
F0.5
sg19
I1062
sg20
g0
(g21
g22
(dp6448
I00
I1048
sI01
I14
stp6449
Rp6450
(dp6451
g19
I1062
sg27
Nsg28
(lp6452
(I00
I1048
tp6453
a(I01
I14
tp6454
asg32
Nsbsg33
I3
sg34
F1063.5
sbs(g8
S'contains(country)'
p6455
tp6456
g0
(g14
g2
Ntp6457
Rp6458
(dp6459
g18
F0.5
sg19
I1062
sg20
g0
(g21
g22
(dp6460
I00
I1048
sI01
I14
stp6461
Rp6462
(dp6463
g19
I1062
sg27
Nsg28
(lp6464
(I00
I1048
tp6465
a(I01
I14
tp6466
asg32
Nsbsg33
I3
sg34
F1063.5
sbs(g9
S'contains(sign)'
p6467
tp6468
g0
(g14
g2
Ntp6469
Rp6470
(dp6471
g18
F0.5
sg19
I1062
sg20
g0
(g21
g22
(dp6472
I00
I1044
sI01
I18
stp6473
Rp6474
(dp6475
g19
I1062
sg27
Nsg28
(lp6476
(I00
I1044
tp6477
a(I01
I18
tp6478
asg32
Nsbsg33
I3
sg34
F1063.5
sbs(g8
S'contains(steve)'
p6479
tp6480
g0
(g14
g2
Ntp6481
Rp6482
(dp6483
g18
F0.5
sg19
I1062
sg20
g0
(g21
g22
(dp6484
I00
I1051
sI01
I11
stp6485
Rp6486
(dp6487
g19
I1062
sg27
Nsg28
(lp6488
(I00
I1051
tp6489
a(I01
I11
tp6490
asg32
Nsbsg33
I3
sg34
F1063.5
sbs(g8
S'contains(raise)'
p6491
tp6492
g0
(g14
g2
Ntp6493
Rp6494
(dp6495
g18
F0.5
sg19
I1062
sg20
g0
(g21
g22
(dp6496
I00
I1045
sI01
I17
stp6497
Rp6498
(dp6499
g19
I1062
sg27
Nsg28
(lp6500
(I00
I1045
tp6501
a(I01
I17
tp6502
asg32
Nsbsg33
I3
sg34
F1063.5
sbs(g9
S'contains(system)'
p6503
tp6504
g0
(g14
g2
Ntp6505
Rp6506
(dp6507
g18
F0.5
sg19
I1062
sg20
g0
(g21
g22
(dp6508
I00
I1029
sI01
I33
stp6509
Rp6510
(dp6511
g19
I1062
sg27
Nsg28
(lp6512
(I00
I1029
tp6513
a(I01
I33
tp6514
asg32
Nsbsg33
I3
sg34
F1063.5
sbs(g9
S'contains(sale)'
p6515
tp6516
g0
(g14
g2
Ntp6517
Rp6518
(dp6519
g18
F0.5
sg19
I1062
sg20
g0
(g21
g22
(dp6520
I00
I1007
sI01
I55
stp6521
Rp6522
(dp6523
g19
I1062
sg27
Nsg28
(lp6524
(I00
I1007
tp6525
a(I01
I55
tp6526
asg32
Nsbsg33
I3
sg34
F1063.5
sbs(g9
S'contains(employee)'
p6527
tp6528
g0
(g14
g2
Ntp6529
Rp6530
(dp6531
g18
F0.5
sg19
I1062
sg20
g0
(g21
g22
(dp6532
I00
I1045
sI01
I17
stp6533
Rp6534
(dp6535
g19
I1062
sg27
Nsg28
(lp6536
(I00
I1045
tp6537
a(I01
I17
tp6538
asg32
Nsbsg33
I3
sg34
F1063.5
sbs(g8
S'contains(cash)'
p6539
tp6540
g0
(g14
g2
Ntp6541
Rp6542
(dp6543
g18
F0.5
sg19
I1062
sg20
g0
(g21
g22
(dp6544
I00
I1053
sI01
I9
stp6545
Rp6546
(dp6547
g19
I1062
sg27
Nsg28
(lp6548
(I00
I1053
tp6549
a(I01
I9
tp6550
asg32
Nsbsg33
I3
sg34
F1063.5
sbs(g9
S'contains(call)'
p6551
tp6552
g0
(g14
g2
Ntp6553
Rp6554
(dp6555
g18
F0.5
sg19
I1062
sg20
g0
(g21
g22
(dp6556
I00
I1027
sI01
I35
stp6557
Rp6558
(dp6559
g19
I1062
sg27
Nsg28
(lp6560
(I00
I1027
tp6561
a(I01
I35
tp6562
asg32
Nsbsg33
I3
sg34
F1063.5
sbs(g8
S'contains(credit)'
p6563
tp6564
g0
(g14
g2
Ntp6565
Rp6566
(dp6567
g18
F0.5
sg19
I1062
sg20
g0
(g21
g22
(dp6568
I00
I1027
sI01
I35
stp6569
Rp6570
(dp6571
g19
I1062
sg27
Nsg28
(lp6572
(I00
I1027
tp6573
a(I01
I35
tp6574
asg32
Nsbsg33
I3
sg34
F1063.5
sbs(g8
S'contains(see)'
p6575
tp6576
g0
(g14
g2
Ntp6577
Rp6578
(dp6579
g18
F0.5
sg19
I1062
sg20
g0
(g21
g22
(dp6580
I00
I1036
sI01
I26
stp6581
Rp6582
(dp6583
g19
I1062
sg27
Nsg28
(lp6584
(I00
I1036
tp6585
a(I01
I26
tp6586
asg32
Nsbsg33
I3
sg34
F1063.5
sbs(g8
S'contains(group)'
p6587
tp6588
g0
(g14
g2
Ntp6589
Rp6590
(dp6591
g18
F0.5
sg19
I1062
sg20
g0
(g21
g22
(dp6592
I00
I1006
sI01
I56
stp6593
Rp6594
(dp6595
g19
I1062
sg27
Nsg28
(lp6596
(I00
I1006
tp6597
a(I01
I56
tp6598
asg32
Nsbsg33
I3
sg34
F1063.5
sbs(g8
S'contains(activity)'
p6599
tp6600
g0
(g14
g2
Ntp6601
Rp6602
(dp6603
g18
F0.5
sg19
I1062
sg20
g0
(g21
g22
(dp6604
I00
I1049
sI01
I13
stp6605
Rp6606
(dp6607
g19
I1062
sg27
Nsg28
(lp6608
(I00
I1049
tp6609
a(I01
I13
tp6610
asg32
Nsbsg33
I3
sg34
F1063.5
sbs(g9
S'contains(part)'
p6611
tp6612
g0
(g14
g2
Ntp6613
Rp6614
(dp6615
g18
F0.5
sg19
I1062
sg20
g0
(g21
g22
(dp6616
I00
I1035
sI01
I27
stp6617
Rp6618
(dp6619
g19
I1062
sg27
Nsg28
(lp6620
(I00
I1035
tp6621
a(I01
I27
tp6622
asg32
Nsbsg33
I3
sg34
F1063.5
sbs(g8
S'contains(official)'
p6623
tp6624
g0
(g14
g2
Ntp6625
Rp6626
(dp6627
g18
F0.5
sg19
I1062
sg20
g0
(g21
g22
(dp6628
I00
I1036
sI01
I26
stp6629
Rp6630
(dp6631
g19
I1062
sg27
Nsg28
(lp6632
(I00
I1036
tp6633
a(I01
I26
tp6634
asg32
Nsbsg33
I3
sg34
F1063.5
sbs(g8
S'contains(lawsuit)'
p6635
tp6636
g0
(g14
g2
Ntp6637
Rp6638
(dp6639
g18
F0.5
sg19
I1062
sg20
g0
(g21
g22
(dp6640
I00
I1049
sI01
I13
stp6641
Rp6642
(dp6643
g19
I1062
sg27
Nsg28
(lp6644
(I00
I1049
tp6645
a(I01
I13
tp6646
asg32
Nsbsg33
I3
sg34
F1063.5
sbs(g9
S'contains(pc)'
p6647
tp6648
g0
(g14
g2
Ntp6649
Rp6650
(dp6651
g18
F0.5
sg19
I1062
sg20
g0
(g21
g22
(dp6652
I00
I1034
sI01
I28
stp6653
Rp6654
(dp6655
g19
I1062
sg27
Nsg28
(lp6656
(I00
I1034
tp6657
a(I01
I28
tp6658
asg32
Nsbsg33
I3
sg34
F1063.5
sbs(g8
S'contains(face)'
p6659
tp6660
g0
(g14
g2
Ntp6661
Rp6662
(dp6663
g18
F0.5
sg19
I1062
sg20
g0
(g21
g22
(dp6664
I00
I1008
sI01
I54
stp6665
Rp6666
(dp6667
g19
I1062
sg27
Nsg28
(lp6668
(I00
I1008
tp6669
a(I01
I54
tp6670
asg32
Nsbsg33
I3
sg34
F1063.5
sbs(g9
S'contains(search)'
p6671
tp6672
g0
(g14
g2
Ntp6673
Rp6674
(dp6675
g18
F0.5
sg19
I1062
sg20
g0
(g21
g22
(dp6676
I00
I1011
sI01
I51
stp6677
Rp6678
(dp6679
g19
I1062
sg27
Nsg28
(lp6680
(I00
I1011
tp6681
a(I01
I51
tp6682
asg32
Nsbsg33
I3
sg34
F1063.5
sbs(g8
S'contains(feature)'
p6683
tp6684
g0
(g14
g2
Ntp6685
Rp6686
(dp6687
g18
F0.5
sg19
I1062
sg20
g0
(g21
g22
(dp6688
I00
I1047
sI01
I15
stp6689
Rp6690
(dp6691
g19
I1062
sg27
Nsg28
(lp6692
(I00
I1047
tp6693
a(I01
I15
tp6694
asg32
Nsbsg33
I3
sg34
F1063.5
sbs(g9
S'contains(demand)'
p6695
tp6696
g0
(g14
g2
Ntp6697
Rp6698
(dp6699
g18
F0.5
sg19
I1062
sg20
g0
(g21
g22
(dp6700
I00
I1036
sI01
I26
stp6701
Rp6702
(dp6703
g19
I1062
sg27
Nsg28
(lp6704
(I00
I1036
tp6705
a(I01
I26
tp6706
asg32
Nsbsg33
I3
sg34
F1063.5
sbs(g8
S'contains(number)'
p6707
tp6708
g0
(g14
g2
Ntp6709
Rp6710
(dp6711
g18
F0.5
sg19
I1062
sg20
g0
(g21
g22
(dp6712
I00
I1046
sI01
I16
stp6713
Rp6714
(dp6715
g19
I1062
sg27
Nsg28
(lp6716
(I00
I1046
tp6717
a(I01
I16
tp6718
asg32
Nsbsg33
I3
sg34
F1063.5
sbs(g8
S'contains(ad)'
p6719
tp6720
g0
(g14
g2
Ntp6721
Rp6722
(dp6723
g18
F0.5
sg19
I1062
sg20
g0
(g21
g22
(dp6724
I00
I1049
sI01
I13
stp6725
Rp6726
(dp6727
g19
I1062
sg27
Nsg28
(lp6728
(I00
I1049
tp6729
a(I01
I13
tp6730
asg32
Nsbsg33
I3
sg34
F1063.5
sbs(g9
S'contains(almunia)'
p6731
tp6732
g0
(g14
g2
Ntp6733
Rp6734
(dp6735
g18
F0.5
sg19
I1062
sg20
g0
(g21
g22
(dp6736
I00
I1052
sI01
I10
stp6737
Rp6738
(dp6739
g19
I1062
sg27
Nsg28
(lp6740
(I00
I1052
tp6741
a(I01
I10
tp6742
asg32
Nsbsg33
I3
sg34
F1063.5
sbs(g9
S'contains(battle)'
p6743
tp6744
g0
(g14
g2
Ntp6745
Rp6746
(dp6747
g18
F0.5
sg19
I1062
sg20
g0
(g21
g22
(dp6748
I00
I1052
sI01
I10
stp6749
Rp6750
(dp6751
g19
I1062
sg27
Nsg28
(lp6752
(I00
I1052
tp6753
a(I01
I10
tp6754
asg32
Nsbsg33
I3
sg34
F1063.5
sbs(g8
S'contains(model)'
p6755
tp6756
g0
(g14
g2
Ntp6757
Rp6758
(dp6759
g18
F0.5
sg19
I1062
sg20
g0
(g21
g22
(dp6760
I00
I1047
sI01
I15
stp6761
Rp6762
(dp6763
g19
I1062
sg27
Nsg28
(lp6764
(I00
I1047
tp6765
a(I01
I15
tp6766
asg32
Nsbsg33
I3
sg34
F1063.5
sbs(g9
S'contains(fund)'
p6767
tp6768
g0
(g14
g2
Ntp6769
Rp6770
(dp6771
g18
F0.5
sg19
I1062
sg20
g0
(g21
g22
(dp6772
I00
I1017
sI01
I45
stp6773
Rp6774
(dp6775
g19
I1062
sg27
Nsg28
(lp6776
(I00
I1017
tp6777
a(I01
I45
tp6778
asg32
Nsbsg33
I3
sg34
F1063.5
sbs(g8
S'contains(acquisition)'
p6779
tp6780
g0
(g14
g2
Ntp6781
Rp6782
(dp6783
g18
F0.5
sg19
I1062
sg20
g0
(g21
g22
(dp6784
I00
I1052
sI01
I10
stp6785
Rp6786
(dp6787
g19
I1062
sg27
Nsg28
(lp6788
(I00
I1052
tp6789
a(I01
I10
tp6790
asg32
Nsbsg33
I3
sg34
F1063.5
sbs(g9
S'contains(dividend)'
p6791
tp6792
g0
(g14
g2
Ntp6793
Rp6794
(dp6795
g18
F0.5
sg19
I1062
sg20
g0
(g21
g22
(dp6796
I00
I1048
sI01
I14
stp6797
Rp6798
(dp6799
g19
I1062
sg27
Nsg28
(lp6800
(I00
I1048
tp6801
a(I01
I14
tp6802
asg32
Nsbsg33
I3
sg34
F1063.5
sbs(g9
S'contains(come)'
p6803
tp6804
g0
(g14
g2
Ntp6805
Rp6806
(dp6807
g18
F0.5
sg19
I1062
sg20
g0
(g21
g22
(dp6808
I00
I1024
sI01
I38
stp6809
Rp6810
(dp6811
g19
I1062
sg27
Nsg28
(lp6812
(I00
I1024
tp6813
a(I01
I38
tp6814
asg32
Nsbsg33
I3
sg34
F1063.5
sbs(g8
S'contains(campaign)'
p6815
tp6816
g0
(g14
g2
Ntp6817
Rp6818
(dp6819
g18
F0.5
sg19
I1062
sg20
g0
(g21
g22
(dp6820
I00
I1049
sI01
I13
stp6821
Rp6822
(dp6823
g19
I1062
sg27
Nsg28
(lp6824
(I00
I1049
tp6825
a(I01
I13
tp6826
asg32
Nsbsg33
I3
sg34
F1063.5
sbs(g8
S'contains(view)'
p6827
tp6828
g0
(g14
g2
Ntp6829
Rp6830
(dp6831
g18
F0.5
sg19
I1062
sg20
g0
(g21
g22
(dp6832
I00
I1048
sI01
I14
stp6833
Rp6834
(dp6835
g19
I1062
sg27
Nsg28
(lp6836
(I00
I1048
tp6837
a(I01
I14
tp6838
asg32
Nsbsg33
I3
sg34
F1063.5
sbs(g8
S'contains(content)'
p6839
tp6840
g0
(g14
g2
Ntp6841
Rp6842
(dp6843
g18
F0.5
sg19
I1062
sg20
g0
(g21
g22
(dp6844
I00
I1049
sI01
I13
stp6845
Rp6846
(dp6847
g19
I1062
sg27
Nsg28
(lp6848
(I00
I1049
tp6849
a(I01
I13
tp6850
asg32
Nsbsg33
I3
sg34
F1063.5
sbs(g8
S'contains(accord)'
p6851
tp6852
g0
(g14
g2
Ntp6853
Rp6854
(dp6855
g18
F0.5
sg19
I1062
sg20
g0
(g21
g22
(dp6856
I00
I1031
sI01
I31
stp6857
Rp6858
(dp6859
g19
I1062
sg27
Nsg28
(lp6860
(I00
I1031
tp6861
a(I01
I31
tp6862
asg32
Nsbsg33
I3
sg34
F1063.5
sbs(g8
S'contains(level)'
p6863
tp6864
g0
(g14
g2
Ntp6865
Rp6866
(dp6867
g18
F0.5
sg19
I1062
sg20
g0
(g21
g22
(dp6868
I00
I1035
sI01
I27
stp6869
Rp6870
(dp6871
g19
I1062
sg27
Nsg28
(lp6872
(I00
I1035
tp6873
a(I01
I27
tp6874
asg32
Nsbsg33
I3
sg34
F1063.5
sbs(g8
S'contains(october)'
p6875
tp6876
g0
(g14
g2
Ntp6877
Rp6878
(dp6879
g18
F0.5
sg19
I1062
sg20
g0
(g21
g22
(dp6880
I00
I1051
sI01
I11
stp6881
Rp6882
(dp6883
g19
I1062
sg27
Nsg28
(lp6884
(I00
I1051
tp6885
a(I01
I11
tp6886
asg32
Nsbsg33
I3
sg34
F1063.5
sbs(g8
S'contains(uk)'
p6887
tp6888
g0
(g14
g2
Ntp6889
Rp6890
(dp6891
g18
F0.5
sg19
I1062
sg20
g0
(g21
g22
(dp6892
I00
I1044
sI01
I18
stp6893
Rp6894
(dp6895
g19
I1062
sg27
Nsg28
(lp6896
(I00
I1044
tp6897
a(I01
I18
tp6898
asg32
Nsbsg33
I3
sg34
F1063.5
sbs(g8
S'contains(appear)'
p6899
tp6900
g0
(g14
g2
Ntp6901
Rp6902
(dp6903
g18
F0.5
sg19
I1062
sg20
g0
(g21
g22
(dp6904
I00
I1053
sI01
I9
stp6905
Rp6906
(dp6907
g19
I1062
sg27
Nsg28
(lp6908
(I00
I1053
tp6909
a(I01
I9
tp6910
asg32
Nsbsg33
I3
sg34
F1063.5
sbs(g8
S'contains(build)'
p6911
tp6912
g0
(g14
g2
Ntp6913
Rp6914
(dp6915
g18
F0.5
sg19
I1062
sg20
g0
(g21
g22
(dp6916
I00
I1052
sI01
I10
stp6917
Rp6918
(dp6919
g19
I1062
sg27
Nsg28
(lp6920
(I00
I1052
tp6921
a(I01
I10
tp6922
asg32
Nsbsg33
I3
sg34
F1063.5
sbs(g9
S'contains(crisis)'
p6923
tp6924
g0
(g14
g2
Ntp6925
Rp6926
(dp6927
g18
F0.5
sg19
I1062
sg20
g0
(g21
g22
(dp6928
I00
I1036
sI01
I26
stp6929
Rp6930
(dp6931
g19
I1062
sg27
Nsg28
(lp6932
(I00
I1036
tp6933
a(I01
I26
tp6934
asg32
Nsbsg33
I3
sg34
F1063.5
sbs(g9
S'contains(meeting)'
p6935
tp6936
g0
(g14
g2
Ntp6937
Rp6938
(dp6939
g18
F0.5
sg19
I1062
sg20
g0
(g21
g22
(dp6940
I00
I1053
sI01
I9
stp6941
Rp6942
(dp6943
g19
I1062
sg27
Nsg28
(lp6944
(I00
I1053
tp6945
a(I01
I9
tp6946
asg32
Nsbsg33
I3
sg34
F1063.5
sbs(g8
S'contains(capital)'
p6947
tp6948
g0
(g14
g2
Ntp6949
Rp6950
(dp6951
g18
F0.5
sg19
I1062
sg20
g0
(g21
g22
(dp6952
I00
I1034
sI01
I28
stp6953
Rp6954
(dp6955
g19
I1062
sg27
Nsg28
(lp6956
(I00
I1034
tp6957
a(I01
I28
tp6958
asg32
Nsbsg33
I3
sg34
F1063.5
sbs(g8
S'contains(account)'
p6959
tp6960
g0
(g14
g2
Ntp6961
Rp6962
(dp6963
g18
F0.5
sg19
I1062
sg20
g0
(g21
g22
(dp6964
I00
I1041
sI01
I21
stp6965
Rp6966
(dp6967
g19
I1062
sg27
Nsg28
(lp6968
(I00
I1041
tp6969
a(I01
I21
tp6970
asg32
Nsbsg33
I3
sg34
F1063.5
sbs(g9
S'contains(consumer)'
p6971
tp6972
g0
(g14
g2
Ntp6973
Rp6974
(dp6975
g18
F0.5
sg19
I1062
sg20
g0
(g21
g22
(dp6976
I00
I1031
sI01
I31
stp6977
Rp6978
(dp6979
g19
I1062
sg27
Nsg28
(lp6980
(I00
I1031
tp6981
a(I01
I31
tp6982
asg32
Nsbsg33
I3
sg34
F1063.5
sbs(g8
S'contains(close)'
p6983
tp6984
g0
(g14
g2
Ntp6985
Rp6986
(dp6987
g18
F0.5
sg19
I1062
sg20
g0
(g21
g22
(dp6988
I00
I1031
sI01
I31
stp6989
Rp6990
(dp6991
g19
I1062
sg27
Nsg28
(lp6992
(I00
I1031
tp6993
a(I01
I31
tp6994
asg32
Nsbsg33
I3
sg34
F1063.5
sbs(g8
S'contains(continue)'
p6995
tp6996
g0
(g14
g2
Ntp6997
Rp6998
(dp6999
g18
F0.5
sg19
I1062
sg20
g0
(g21
g22
(dp7000
I00
I1028
sI01
I34
stp7001
Rp7002
(dp7003
g19
I1062
sg27
Nsg28
(lp7004
(I00
I1028
tp7005
a(I01
I34
tp7006
asg32
Nsbsg33
I3
sg34
F1063.5
sbs(g9
S"contains(bank's)"
p7007
tp7008
g0
(g14
g2
Ntp7009
Rp7010
(dp7011
g18
F0.5
sg19
I1062
sg20
g0
(g21
g22
(dp7012
I00
I1044
sI01
I18
stp7013
Rp7014
(dp7015
g19
I1062
sg27
Nsg28
(lp7016
(I00
I1044
tp7017
a(I01
I18
tp7018
asg32
Nsbsg33
I3
sg34
F1063.5
sbs(g8
S'contains(stock)'
p7019
tp7020
g0
(g14
g2
Ntp7021
Rp7022
(dp7023
g18
F0.5
sg19
I1062
sg20
g0
(g21
g22
(dp7024
I00
I1005
sI01
I57
stp7025
Rp7026
(dp7027
g19
I1062
sg27
Nsg28
(lp7028
(I00
I1005
tp7029
a(I01
I57
tp7030
asg32
Nsbsg33
I3
sg34
F1063.5
sbs(g8
S'contains(privacy)'
p7031
tp7032
g0
(g14
g2
Ntp7033
Rp7034
(dp7035
g18
F0.5
sg19
I1062
sg20
g0
(g21
g22
(dp7036
I00
I1045
sI01
I17
stp7037
Rp7038
(dp7039
g19
I1062
sg27
Nsg28
(lp7040
(I00
I1045
tp7041
a(I01
I17
tp7042
asg32
Nsbsg33
I3
sg34
F1063.5
sbs(g9
S'contains(find)'
p7043
tp7044
g0
(g14
g2
Ntp7045
Rp7046
(dp7047
g18
F0.5
sg19
I1062
sg20
g0
(g21
g22
(dp7048
I00
I1043
sI01
I19
stp7049
Rp7050
(dp7051
g19
I1062
sg27
Nsg28
(lp7052
(I00
I1043
tp7053
a(I01
I19
tp7054
asg32
Nsbsg33
I3
sg34
F1063.5
sbs(g8
S'contains(review)'
p7055
tp7056
g0
(g14
g2
Ntp7057
Rp7058
(dp7059
g18
F0.5
sg19
I1062
sg20
g0
(g21
g22
(dp7060
I00
I1036
sI01
I26
stp7061
Rp7062
(dp7063
g19
I1062
sg27
Nsg28
(lp7064
(I00
I1036
tp7065
a(I01
I26
tp7066
asg32
Nsbsg33
I3
sg34
F1063.5
sbs(g8
S'contains(client)'
p7067
tp7068
g0
(g14
g2
Ntp7069
Rp7070
(dp7071
g18
F0.5
sg19
I1062
sg20
g0
(g21
g22
(dp7072
I00
I1040
sI01
I22
stp7073
Rp7074
(dp7075
g19
I1062
sg27
Nsg28
(lp7076
(I00
I1040
tp7077
a(I01
I22
tp7078
asg32
Nsbsg33
I3
sg34
F1063.5
sbs(g8
S'contains(disclose)'
p7079
tp7080
g0
(g14
g2
Ntp7081
Rp7082
(dp7083
g18
F0.5
sg19
I1062
sg20
g0
(g21
g22
(dp7084
I00
I1046
sI01
I16
stp7085
Rp7086
(dp7087
g19
I1062
sg27
Nsg28
(lp7088
(I00
I1046
tp7089
a(I01
I16
tp7090
asg32
Nsbsg33
I3
sg34
F1063.5
sbs(g8
S'contains(part)'
p7091
tp7092
g0
(g14
g2
Ntp7093
Rp7094
(dp7095
g18
F0.5
sg19
I1062
sg20
g0
(g21
g22
(dp7096
I00
I1030
sI01
I32
stp7097
Rp7098
(dp7099
g19
I1062
sg27
Nsg28
(lp7100
(I00
I1030
tp7101
a(I01
I32
tp7102
asg32
Nsbsg33
I3
sg34
F1063.5
sbs(g8
S'contains(target)'
p7103
tp7104
g0
(g14
g2
Ntp7105
Rp7106
(dp7107
g18
F0.5
sg19
I1062
sg20
g0
(g21
g22
(dp7108
I00
I1053
sI01
I9
stp7109
Rp7110
(dp7111
g19
I1062
sg27
Nsg28
(lp7112
(I00
I1053
tp7113
a(I01
I9
tp7114
asg32
Nsbsg33
I3
sg34
F1063.5
sbs(g8
S'contains(smartphone)'
p7115
tp7116
g0
(g14
g2
Ntp7117
Rp7118
(dp7119
g18
F0.5
sg19
I1062
sg20
g0
(g21
g22
(dp7120
I00
I1050
sI01
I12
stp7121
Rp7122
(dp7123
g19
I1062
sg27
Nsg28
(lp7124
(I00
I1050
tp7125
a(I01
I12
tp7126
asg32
Nsbsg33
I3
sg34
F1063.5
sbs(g8
S'contains(term)'
p7127
tp7128
g0
(g14
g2
Ntp7129
Rp7130
(dp7131
g18
F0.5
sg19
I1062
sg20
g0
(g21
g22
(dp7132
I00
I1052
sI01
I10
stp7133
Rp7134
(dp7135
g19
I1062
sg27
Nsg28
(lp7136
(I00
I1052
tp7137
a(I01
I10
tp7138
asg32
Nsbsg33
I3
sg34
F1063.5
sbs(g8
S'contains(demand)'
p7139
tp7140
g0
(g14
g2
Ntp7141
Rp7142
(dp7143
g18
F0.5
sg19
I1062
sg20
g0
(g21
g22
(dp7144
I00
I1044
sI01
I18
stp7145
Rp7146
(dp7147
g19
I1062
sg27
Nsg28
(lp7148
(I00
I1044
tp7149
a(I01
I18
tp7150
asg32
Nsbsg33
I3
sg34
F1063.5
sbs(g8
S'contains(commission)'
p7151
tp7152
g0
(g14
g2
Ntp7153
Rp7154
(dp7155
g18
F0.5
sg19
I1062
sg20
g0
(g21
g22
(dp7156
I00
I1027
sI01
I35
stp7157
Rp7158
(dp7159
g19
I1062
sg27
Nsg28
(lp7160
(I00
I1027
tp7161
a(I01
I35
tp7162
asg32
Nsbsg33
I3
sg34
F1063.5
sbs(g8
S'contains(management)'
p7163
tp7164
g0
(g14
g2
Ntp7165
Rp7166
(dp7167
g18
F0.5
sg19
I1062
sg20
g0
(g21
g22
(dp7168
I00
I1048
sI01
I14
stp7169
Rp7170
(dp7171
g19
I1062
sg27
Nsg28
(lp7172
(I00
I1048
tp7173
a(I01
I14
tp7174
asg32
Nsbsg33
I3
sg34
F1063.5
sbs(g9
S'contains(increase)'
p7175
tp7176
g0
(g14
g2
Ntp7177
Rp7178
(dp7179
g18
F0.5
sg19
I1062
sg20
g0
(g21
g22
(dp7180
I00
I1021
sI01
I41
stp7181
Rp7182
(dp7183
g19
I1062
sg27
Nsg28
(lp7184
(I00
I1021
tp7185
a(I01
I41
tp7186
asg32
Nsbsg33
I3
sg34
F1063.5
sbs(g8
S'contains(app)'
p7187
tp7188
g0
(g14
g2
Ntp7189
Rp7190
(dp7191
g18
F0.5
sg19
I1062
sg20
g0
(g21
g22
(dp7192
I00
I1047
sI01
I15
stp7193
Rp7194
(dp7195
g19
I1062
sg27
Nsg28
(lp7196
(I00
I1047
tp7197
a(I01
I15
tp7198
asg32
Nsbsg33
I3
sg34
F1063.5
sbs(g8
S'contains(battle)'
p7199
tp7200
g0
(g14
g2
Ntp7201
Rp7202
(dp7203
g18
F0.5
sg19
I1062
sg20
g0
(g21
g22
(dp7204
I00
I1047
sI01
I15
stp7205
Rp7206
(dp7207
g19
I1062
sg27
Nsg28
(lp7208
(I00
I1047
tp7209
a(I01
I15
tp7210
asg32
Nsbsg33
I3
sg34
F1063.5
sbs(g9
S'contains(model)'
p7211
tp7212
g0
(g14
g2
Ntp7213
Rp7214
(dp7215
g18
F0.5
sg19
I1062
sg20
g0
(g21
g22
(dp7216
I00
I1053
sI01
I9
stp7217
Rp7218
(dp7219
g19
I1062
sg27
Nsg28
(lp7220
(I00
I1053
tp7221
a(I01
I9
tp7222
asg32
Nsbsg33
I3
sg34
F1063.5
sbssS'_label_probdist'
p7223
g0
(g14
g2
Ntp7224
Rp7225
(dp7226
g18
F0.5
sg19
I2124
sg20
g0
(g21
g22
(dp7227
g9
I1062
sg8
I1062
stp7228
Rp7229
(dp7230
g19
I2124
sg27
Nsg28
(lp7231
(g8
I1062
tp7232
a(g9
I1062
tp7233
asg32
Nsbsg33
I2
sg34
F2125.0
sbsb.